"#<LLVM-SYS::FUNCTION 
define internal void @A({ {}*, i32 }* %result-ptr, { {}* }* %closed-af-ptr, i32 %num-varargs, { {}* }* %va-list) {
\"(TRY-0).entry\":
  %exn.slot = alloca i8*, align 8
  %ehselector.slot = alloca i32, align 4
  store i32 0, i32* %ehselector.slot, align 4
  %lambda-args-39- = alloca { {}* }, align 8
  call void @newAFsp({ {}* }* %lambda-args-39-)
  %temp = alloca { {}* }, align 8
  call void @newTsp({ {}* }* %temp)
  %0 = alloca [3 x { {}* }], align 8
  %.sub200 = bitcast [3 x { {}* }]* %0 to { {}* }*
  call void @newTsp({ {}* }* %.sub200)
  %gep6 = getelementptr inbounds [3 x { {}* }]* %0, i64 0, i64 1
  call void @newTsp({ {}* }* %gep6)
  %gep7 = getelementptr inbounds [3 x { {}* }]* %0, i64 0, i64 2
  call void @newTsp({ {}* }* %gep7)
  %temp9 = alloca { {}* }, align 8
  call void @newTsp({ {}* }* %temp9)
  %LET = alloca { {}* }, align 8
  call void @newAFsp({ {}* }* %LET)
  %temp12 = alloca { {}* }, align 8
  call void @newTsp({ {}* }* %temp12)
  %temp-mv-result = alloca { {}*, i32 }, align 8
  call void @newTmv({ {}*, i32 }* %temp-mv-result)
  %unwind-protect-saved-values = alloca { {}* }, align 8
  call void @newTsp({ {}* }* %unwind-protect-saved-values)
  %temp-mv-result14 = alloca { {}*, i32 }, align 8
  call void @newTmv({ {}*, i32 }* %temp-mv-result14)
  %unwind-protect-saved-values15 = alloca { {}* }, align 8
  call void @newTsp({ {}* }* %unwind-protect-saved-values15)
  %temp18 = alloca { {}* }, align 8
  call void @newTsp({ {}* }* %temp18)
  %\"LET*\" = alloca { {}* }, align 8
  call void @newAFsp({ {}* }* %\"LET*\")
  %temp21 = alloca { {}* }, align 8
  call void @newTsp({ {}* }* %temp21)
  %tsetq = alloca { {}* }, align 8
  call void @newTsp({ {}* }* %tsetq)
  %1 = alloca [2 x { {}* }], align 8
  %.sub181201 = bitcast [2 x { {}* }]* %1 to { {}* }*
  call void @newTsp({ {}* }* %.sub181201)
  %gep23 = getelementptr inbounds [2 x { {}* }]* %1, i64 0, i64 1
  call void @newTsp({ {}* }* %gep23)
  %func = alloca { i32* }, align 8
  call void @newFunction_sp({ i32* }* %func)
  %temp31 = alloca { {}* }, align 8
  call void @newTsp({ {}* }* %temp31)
  %\"LET*32\" = alloca { {}* }, align 8
  call void @newAFsp({ {}* }* %\"LET*32\")
  %temp36 = alloca { {}* }, align 8
  call void @newTsp({ {}* }* %temp36)
  %tsetq37 = alloca { {}* }, align 8
  call void @newTsp({ {}* }* %tsetq37)
  %2 = alloca [2 x { {}* }], align 8
  %.sub182202 = bitcast [2 x { {}* }]* %2 to { {}* }*
  call void @newTsp({ {}* }* %.sub182202)
  %gep39 = getelementptr inbounds [2 x { {}* }]* %2, i64 0, i64 1
  call void @newTsp({ {}* }* %gep39)
  %func42 = alloca { i32* }, align 8
  call void @newFunction_sp({ i32* }* %func42)
  %temp52 = alloca { {}* }, align 8
  call void @newTsp({ {}* }* %temp52)
  %\"LET*53\" = alloca { {}* }, align 8
  call void @newAFsp({ {}* }* %\"LET*53\")
  %temp57 = alloca { {}* }, align 8
  call void @newTsp({ {}* }* %temp57)
  %tsetq58 = alloca { {}* }, align 8
  call void @newTsp({ {}* }* %tsetq58)
  %3 = alloca [2 x { {}* }], align 8
  %.sub183203 = bitcast [2 x { {}* }]* %3 to { {}* }*
  call void @newTsp({ {}* }* %.sub183203)
  %gep60 = getelementptr inbounds [2 x { {}* }]* %3, i64 0, i64 1
  call void @newTsp({ {}* }* %gep60)
  %func63 = alloca { i32* }, align 8
  call void @newFunction_sp({ i32* }* %func63)
  %temp73 = alloca { {}* }, align 8
  call void @newTsp({ {}* }* %temp73)
  %\"LET*74\" = alloca { {}* }, align 8
  call void @newAFsp({ {}* }* %\"LET*74\")
  %temp78 = alloca { {}* }, align 8
  call void @newTsp({ {}* }* %temp78)
  %tsetq79 = alloca { {}* }, align 8
  call void @newTsp({ {}* }* %tsetq79)
  %4 = alloca [2 x { {}* }], align 8
  %.sub184204 = bitcast [2 x { {}* }]* %4 to { {}* }*
  call void @newTsp({ {}* }* %.sub184204)
  %gep81 = getelementptr inbounds [2 x { {}* }]* %4, i64 0, i64 1
  call void @newTsp({ {}* }* %gep81)
  %func84 = alloca { i32* }, align 8
  call void @newFunction_sp({ i32* }* %func84)
  %tagbody-frame = alloca { {}* }, align 8
  call void @newAFsp({ {}* }* %tagbody-frame)
  %temp94 = alloca { {}* }, align 8
  call void @newTsp({ {}* }* %temp94)
  %temp96 = alloca { {}* }, align 8
  call void @newTsp({ {}* }* %temp96)
  %5 = alloca { {}* }, align 8
  call void @newTsp({ {}* }* %5)
  %func99 = alloca { i32* }, align 8
  call void @newFunction_sp({ i32* }* %func99)
  %temp102 = alloca { {}* }, align 8
  call void @newTsp({ {}* }* %temp102)
  %if-cond-tsp = alloca { {}* }, align 8
  call void @newTsp({ {}* }* %if-cond-tsp)
  %6 = alloca { {}* }, align 8
  call void @newTsp({ {}* }* %6)
  %7 = alloca { {}* }, align 8
  call void @newTsp({ {}* }* %7)
  %func107 = alloca { i32* }, align 8
  call void @newFunction_sp({ i32* }* %func107)
  %func110 = alloca { i32* }, align 8
  call void @newFunction_sp({ i32* }* %func110)
  %temp113 = alloca { {}* }, align 8
  call void @newTsp({ {}* }* %temp113)
  %func136 = alloca { i32* }, align 8
  call void @newFunction_sp({ i32* }* %func136)
  call void @makeValueFrame({ {}* }* %lambda-args-39-, i32 0, i32 2000059)
  %correct-num-args = icmp eq i32 %num-varargs, 0
  br i1 %correct-num-args, label %\"(TRY-0).continue3\", label %\"(TRY-0).error\"

\"(TRY-0).error\":                                  ; preds = %\"(TRY-0).entry\"
  %enough-args = icmp slt i32 %num-varargs, 0
  br i1 %enough-args, label %\"(TRY-0).error1\", label %\"(TRY-0).continue\"

\"(TRY-0).error1\":                                 ; preds = %\"(TRY-0).error\"
  invoke void @va_throwNotEnoughArgumentsException(i8* getelementptr inbounds ([2 x i8]* @\":::global-str-A\", i64 0, i64 0), i32 %num-varargs, i32 0)
          to label %\"(TRY-0).normal-dest\" unwind label %\"(TRY-0).func-cleanup-landing-pad\"

\"(TRY-0).normal-dest\":                            ; preds = %\"(TRY-0).error1\"
  call void @unreachableError()
  unreachable

\"(TRY-0).continue\":                               ; preds = %\"(TRY-0).error\"
  invoke void @va_throwTooManyArgumentsException(i8* getelementptr inbounds ([2 x i8]* @\":::global-str-A\", i64 0, i64 0), i32 %num-varargs, i32 0)
          to label %\"(TRY-0).normal-dest2\" unwind label %\"(TRY-0).func-cleanup-landing-pad\"

\"(TRY-0).normal-dest2\":                           ; preds = %\"(TRY-0).continue\"
  call void @unreachableError()
  unreachable

\"(TRY-0).continue3\":                              ; preds = %\"(TRY-0).entry\"
  invoke void @va_fillActivationFrameWithRequiredVarargs({ {}* }* %lambda-args-39-, i32 0, { {}* }* %va-list)
          to label %\"(TRY-0).normal-dest4\" unwind label %\"(TRY-0).func-cleanup-landing-pad\"

\"(TRY-0).normal-dest4\":                           ; preds = %\"(TRY-0).continue3\"
  %8 = bitcast [2 x { {}* }]* %1 to { {}* }*
  %9 = bitcast [3 x { {}* }]* %0 to { {}* }*
  call void @setParentOfActivationFrame({ {}* }* %lambda-args-39-, { {}* }* %closed-af-ptr)
  %value = call { {}* }* @loadTimeValueReference({ {}* }** @globalRunTimeValuesVector, i32 122)
  call void @attachDebuggingInfoToValueFrame({ {}* }* %lambda-args-39-, { {}* }* %value)
  call void @trace_setActivationFrameForIHSTop({ {}* }* %lambda-args-39-)
  call void @trace_setLineNumberColumnForIHSTop(i32 5, i32 13), !dbg !11
  %\"SYMBOL->CL:T\" = call { i32* }* @loadTimeSymbolReference({ {}* }** @globalRunTimeValuesVector, i32 21), !dbg !11
  call void @sp_symbolValueRead({ {}* }* %9, { i32* }* %\"SYMBOL->CL:T\"), !dbg !11
  call void @sp_copyLoadTimeValue({ {}* }* %gep6, { {}* }** @globalRunTimeValuesVector, i32 123), !dbg !11
  call void @trace_setActivationFrameForIHSTop({ {}* }* %lambda-args-39-), !dbg !11
  call void @trace_setActivationFrameForIHSTop({ {}* }* %LET), !dbg !11
  call void @makeValueFrame({ {}* }* %LET, i32 1, i32 2000060), !dbg !11
  call void @setParentOfActivationFrame({ {}* }* %LET, { {}* }* %lambda-args-39-), !dbg !11
  %value11 = call { {}* }* @loadTimeValueReference({ {}* }** @globalRunTimeValuesVector, i32 124), !dbg !11
  call void @attachDebuggingInfoToValueFrame({ {}* }* %LET, { {}* }* %value11), !dbg !11
  %10 = call { {}* }* @lexicalValueReference(i32 0, i32 0, { {}* }* %LET), !dbg !11
  call void @sp_copyLoadTimeValue({ {}* }* %10, { {}* }** @globalRunTimeValuesVector, i32 125), !dbg !11
  call void @trace_setActivationFrameForIHSTop({ {}* }* %LET), !dbg !11
  call void @singleStepCallback(), !dbg !11
  call void @mv_copyLoadTimeValue({ {}*, i32 }* %temp-mv-result14, { {}* }** @globalRunTimeValuesVector, i32 126), !dbg !11
  call void @saveValues({ {}* }* %unwind-protect-saved-values15, { {}*, i32 }* %temp-mv-result14), !dbg !11
  call void @trace_setActivationFrameForIHSTop({ {}* }* %\"LET*\"), !dbg !11
  call void @makeValueFrame({ {}* }* %\"LET*\", i32 1, i32 2000061), !dbg !11
  call void @setParentOfActivationFrame({ {}* }* %\"LET*\", { {}* }* %LET), !dbg !11
  %value20 = call { {}* }* @loadTimeValueReference({ {}* }** @globalRunTimeValuesVector, i32 127), !dbg !11
  call void @attachDebuggingInfoToValueFrame({ {}* }* %\"LET*\", { {}* }* %value20), !dbg !11
  %11 = call { {}* }* @lexicalValueReference(i32 0, i32 0, { {}* }* %\"LET*\"), !dbg !11
  call void @sp_copyLoadTimeValue({ {}* }* %11, { {}* }** @globalRunTimeValuesVector, i32 128), !dbg !11
  call void @trace_setActivationFrameForIHSTop({ {}* }* %\"LET*\"), !dbg !11
  call void @singleStepCallback(), !dbg !11
  %12 = call { {}* }* @lexicalValueReference(i32 1, i32 0, { {}* }* %\"LET*\"), !dbg !11
  call void @sp_lexicalValueRead({ {}* }* %8, i32 1, i32 0, { {}* }* %\"LET*\"), !dbg !11
  call void @sp_lexicalValueRead({ {}* }* %gep23, i32 0, i32 0, { {}* }* %\"LET*\"), !dbg !11
  %\"SYMBOL->CL:-\" = call { i32* }* @loadTimeSymbolReference({ {}* }** @globalRunTimeValuesVector, i32 51), !dbg !11
  invoke void @va_symbolFunction({ i32* }* %func, { i32* }* %\"SYMBOL->CL:-\")
          to label %\"(TRY-0).normal-dest26\" unwind label %\"(TRY-0).landing-pad\", !dbg !11

\"(TRY-0).normal-dest26\":                          ; preds = %\"(TRY-0).normal-dest4\"
  %13 = bitcast [2 x { {}* }]* %1 to { {}* }*
  invoke void @sp_FUNCALL({ {}* }* %tsetq, { i32* }* %func, i32 2, { {}* }* %13)
          to label %\"(TRY-0).normal-dest27\" unwind label %\"(TRY-0).landing-pad\", !dbg !11

\"(TRY-0).normal-dest27\":                          ; preds = %\"(TRY-0).normal-dest26\"
  %14 = bitcast [2 x { {}* }]* %3 to { {}* }*
  call void @sp_copyTsp({ {}* }* %12, { {}* }* %tsetq), !dbg !11
  call void @sp_copyTsp({ {}* }* %temp18, { {}* }* %tsetq), !dbg !11
  call void @loadValues({ {}*, i32 }* %temp-mv-result14, { {}* }* %unwind-protect-saved-values15), !dbg !11
  call void @mv_copyTmvOrSlice({ {}*, i32 }* %temp-mv-result, { {}*, i32 }* %temp-mv-result14), !dbg !11
  call void @saveValues({ {}* }* %unwind-protect-saved-values, { {}*, i32 }* %temp-mv-result), !dbg !11
  call void @trace_setActivationFrameForIHSTop({ {}* }* %\"LET*53\"), !dbg !11
  call void @makeValueFrame({ {}* }* %\"LET*53\", i32 1, i32 2000063), !dbg !11
  call void @setParentOfActivationFrame({ {}* }* %\"LET*53\", { {}* }* %LET), !dbg !11
  %value56 = call { {}* }* @loadTimeValueReference({ {}* }** @globalRunTimeValuesVector, i32 131), !dbg !11
  call void @attachDebuggingInfoToValueFrame({ {}* }* %\"LET*53\", { {}* }* %value56), !dbg !11
  %15 = call { {}* }* @lexicalValueReference(i32 0, i32 0, { {}* }* %\"LET*53\"), !dbg !11
  call void @sp_copyLoadTimeValue({ {}* }* %15, { {}* }** @globalRunTimeValuesVector, i32 132), !dbg !11
  call void @trace_setActivationFrameForIHSTop({ {}* }* %\"LET*53\"), !dbg !11
  call void @singleStepCallback(), !dbg !11
  %16 = call { {}* }* @lexicalValueReference(i32 1, i32 0, { {}* }* %\"LET*53\"), !dbg !11
  call void @sp_lexicalValueRead({ {}* }* %14, i32 1, i32 0, { {}* }* %\"LET*53\"), !dbg !11
  call void @sp_lexicalValueRead({ {}* }* %gep60, i32 0, i32 0, { {}* }* %\"LET*53\"), !dbg !11
  %\"SYMBOL->CL:-64\" = call { i32* }* @loadTimeSymbolReference({ {}* }** @globalRunTimeValuesVector, i32 51), !dbg !11
  invoke void @va_symbolFunction({ i32* }* %func63, { i32* }* %\"SYMBOL->CL:-64\")
          to label %\"(TRY-0).normal-dest65\" unwind label %\"(TRY-0).landing-pad68\", !dbg !11

\"(TRY-0).landing-pad\":                            ; preds = %\"(TRY-0).normal-dest26\", %\"(TRY-0).normal-dest4\"
  %17 = landingpad { i8*, i32 } personality i32 (...)* @__gxx_personality_v0
          cleanup
          catch i8* @_ZTIN4core10ReturnFromE, !dbg !11
  %18 = extractvalue { i8*, i32 } %17, 0, !dbg !11
  store i8* %18, i8** %exn.slot, align 8, !dbg !11
  %19 = extractvalue { i8*, i32 } %17, 1, !dbg !11
  store i32 %19, i32* %ehselector.slot, align 4, !dbg !11
  br label %\"(TRY-0).dispatch-header30\", !dbg !11

\"(TRY-0).dispatch-header30\":                      ; preds = %\"(TRY-0).landing-pad47\", %\"(TRY-0).landing-pad\"
  %exn132192 = phi i8* [ %25, %\"(TRY-0).landing-pad47\" ], [ %18, %\"(TRY-0).landing-pad\" ]
  %ehselector-slot131188 = phi i32 [ %26, %\"(TRY-0).landing-pad47\" ], [ %19, %\"(TRY-0).landing-pad\" ]
  %20 = bitcast [2 x { {}* }]* %2 to { {}* }*
  call void @trace_setActivationFrameForIHSTop({ {}* }* %\"LET*32\"), !dbg !11
  call void @makeValueFrame({ {}* }* %\"LET*32\", i32 1, i32 2000062), !dbg !11
  call void @setParentOfActivationFrame({ {}* }* %\"LET*32\", { {}* }* %LET), !dbg !11
  %value35 = call { {}* }* @loadTimeValueReference({ {}* }** @globalRunTimeValuesVector, i32 129), !dbg !11
  call void @attachDebuggingInfoToValueFrame({ {}* }* %\"LET*32\", { {}* }* %value35), !dbg !11
  %21 = call { {}* }* @lexicalValueReference(i32 0, i32 0, { {}* }* %\"LET*32\"), !dbg !11
  call void @sp_copyLoadTimeValue({ {}* }* %21, { {}* }** @globalRunTimeValuesVector, i32 130), !dbg !11
  call void @trace_setActivationFrameForIHSTop({ {}* }* %\"LET*32\"), !dbg !11
  call void @singleStepCallback(), !dbg !11
  %22 = call { {}* }* @lexicalValueReference(i32 1, i32 0, { {}* }* %\"LET*32\"), !dbg !11
  call void @sp_lexicalValueRead({ {}* }* %20, i32 1, i32 0, { {}* }* %\"LET*32\"), !dbg !11
  call void @sp_lexicalValueRead({ {}* }* %gep39, i32 0, i32 0, { {}* }* %\"LET*32\"), !dbg !11
  %\"SYMBOL->CL:-43\" = call { i32* }* @loadTimeSymbolReference({ {}* }** @globalRunTimeValuesVector, i32 51), !dbg !11
  invoke void @va_symbolFunction({ i32* }* %func42, { i32* }* %\"SYMBOL->CL:-43\")
          to label %\"(TRY-0).normal-dest44\" unwind label %\"(TRY-0).landing-pad47\", !dbg !11

\"(TRY-0).normal-dest44\":                          ; preds = %\"(TRY-0).dispatch-header30\"
  %23 = bitcast [2 x { {}* }]* %2 to { {}* }*
  invoke void @sp_FUNCALL({ {}* }* %tsetq37, { i32* }* %func42, i32 2, { {}* }* %23)
          to label %\"(TRY-0).normal-dest45\" unwind label %\"(TRY-0).landing-pad47\", !dbg !11

\"(TRY-0).normal-dest45\":                          ; preds = %\"(TRY-0).normal-dest44\"
  call void @sp_copyTsp({ {}* }* %22, { {}* }* %tsetq37), !dbg !11
  call void @sp_copyTsp({ {}* }* %temp31, { {}* }* %tsetq37), !dbg !11
  call void @loadValues({ {}*, i32 }* %temp-mv-result14, { {}* }* %unwind-protect-saved-values15), !dbg !11
  call void @mv_copyTmvOrSlice({ {}*, i32 }* %temp-mv-result, { {}*, i32 }* %temp-mv-result14), !dbg !11
  br label %\"(TRY-0).dispatch-header72\", !dbg !11

\"(TRY-0).landing-pad47\":                          ; preds = %\"(TRY-0).normal-dest44\", %\"(TRY-0).dispatch-header30\"
  %24 = landingpad { i8*, i32 } personality i32 (...)* @__gxx_personality_v0
          cleanup
          catch i8* @_ZTIN4core10ReturnFromE, !dbg !11
  %25 = extractvalue { i8*, i32 } %24, 0, !dbg !11
  store i8* %25, i8** %exn.slot, align 8, !dbg !11
  %26 = extractvalue { i8*, i32 } %24, 1, !dbg !11
  store i32 %26, i32* %ehselector.slot, align 4, !dbg !11
  br label %\"(TRY-0).dispatch-header30\", !dbg !11

\"(TRY-0).normal-dest65\":                          ; preds = %\"(TRY-0).normal-dest27\"
  %27 = bitcast [2 x { {}* }]* %3 to { {}* }*
  invoke void @sp_FUNCALL({ {}* }* %tsetq58, { i32* }* %func63, i32 2, { {}* }* %27)
          to label %\"(TRY-0).normal-dest66\" unwind label %\"(TRY-0).landing-pad68\", !dbg !11

\"(TRY-0).normal-dest66\":                          ; preds = %\"(TRY-0).normal-dest65\"
  call void @sp_copyTsp({ {}* }* %16, { {}* }* %tsetq58), !dbg !11
  call void @sp_copyTsp({ {}* }* %temp52, { {}* }* %tsetq58), !dbg !11
  call void @loadValues({ {}*, i32 }* %temp-mv-result, { {}* }* %unwind-protect-saved-values), !dbg !11
  call void @sp_copyTmvOrSlice({ {}* }* %temp12, { {}*, i32 }* %temp-mv-result), !dbg !11
  call void @makeTagbodyFrame({ {}* }* %tagbody-frame), !dbg !11
  call void @setParentOfActivationFrame({ {}* }* %tagbody-frame, { {}* }* %LET), !dbg !11
  br label %\"(TRY-0).tagbody-#:G1485-0\", !dbg !11

\"(TRY-0).landing-pad68\":                          ; preds = %\"(TRY-0).normal-dest65\", %\"(TRY-0).normal-dest27\"
  %28 = landingpad { i8*, i32 } personality i32 (...)* @__gxx_personality_v0
          cleanup
          catch i8* @_ZTIN4core10ReturnFromE, !dbg !11
  %29 = extractvalue { i8*, i32 } %28, 0, !dbg !11
  store i8* %29, i8** %exn.slot, align 8, !dbg !11
  %30 = extractvalue { i8*, i32 } %28, 1, !dbg !11
  store i32 %30, i32* %ehselector.slot, align 4, !dbg !11
  br label %\"(TRY-0).dispatch-header72\", !dbg !11

\"(TRY-0).dispatch-header72\":                      ; preds = %\"(TRY-0).landing-pad68\", %\"(TRY-0).normal-dest45\", %\"(TRY-0).landing-pad89\"
  %exn132191 = phi i8* [ %36, %\"(TRY-0).landing-pad89\" ], [ %29, %\"(TRY-0).landing-pad68\" ], [ %exn132192, %\"(TRY-0).normal-dest45\" ]
  %ehselector-slot131187 = phi i32 [ %37, %\"(TRY-0).landing-pad89\" ], [ %30, %\"(TRY-0).landing-pad68\" ], [ %ehselector-slot131188, %\"(TRY-0).normal-dest45\" ]
  %31 = bitcast [2 x { {}* }]* %4 to { {}* }*
  call void @trace_setActivationFrameForIHSTop({ {}* }* %\"LET*74\"), !dbg !11
  call void @makeValueFrame({ {}* }* %\"LET*74\", i32 1, i32 2000064), !dbg !11
  call void @setParentOfActivationFrame({ {}* }* %\"LET*74\", { {}* }* %LET), !dbg !11
  %value77 = call { {}* }* @loadTimeValueReference({ {}* }** @globalRunTimeValuesVector, i32 133), !dbg !11
  call void @attachDebuggingInfoToValueFrame({ {}* }* %\"LET*74\", { {}* }* %value77), !dbg !11
  %32 = call { {}* }* @lexicalValueReference(i32 0, i32 0, { {}* }* %\"LET*74\"), !dbg !11
  call void @sp_copyLoadTimeValue({ {}* }* %32, { {}* }** @globalRunTimeValuesVector, i32 134), !dbg !11
  call void @trace_setActivationFrameForIHSTop({ {}* }* %\"LET*74\"), !dbg !11
  call void @singleStepCallback(), !dbg !11
  %33 = call { {}* }* @lexicalValueReference(i32 1, i32 0, { {}* }* %\"LET*74\"), !dbg !11
  call void @sp_lexicalValueRead({ {}* }* %31, i32 1, i32 0, { {}* }* %\"LET*74\"), !dbg !11
  call void @sp_lexicalValueRead({ {}* }* %gep81, i32 0, i32 0, { {}* }* %\"LET*74\"), !dbg !11
  %\"SYMBOL->CL:-85\" = call { i32* }* @loadTimeSymbolReference({ {}* }** @globalRunTimeValuesVector, i32 51), !dbg !11
  invoke void @va_symbolFunction({ i32* }* %func84, { i32* }* %\"SYMBOL->CL:-85\")
          to label %\"(TRY-0).normal-dest86\" unwind label %\"(TRY-0).landing-pad89\", !dbg !11

\"(TRY-0).normal-dest86\":                          ; preds = %\"(TRY-0).dispatch-header72\"
  %34 = bitcast [2 x { {}* }]* %4 to { {}* }*
  invoke void @sp_FUNCALL({ {}* }* %tsetq79, { i32* }* %func84, i32 2, { {}* }* %34)
          to label %\"(TRY-0).normal-dest87\" unwind label %\"(TRY-0).landing-pad89\", !dbg !11

\"(TRY-0).normal-dest87\":                          ; preds = %\"(TRY-0).normal-dest86\"
  call void @sp_copyTsp({ {}* }* %33, { {}* }* %tsetq79), !dbg !11
  call void @sp_copyTsp({ {}* }* %temp73, { {}* }* %tsetq79), !dbg !11
  call void @loadValues({ {}*, i32 }* %temp-mv-result, { {}* }* %unwind-protect-saved-values), !dbg !11
  call void @sp_copyTmvOrSlice({ {}* }* %temp12, { {}*, i32 }* %temp-mv-result), !dbg !11
  br label %\"(TRY-0).dispatch-header130\", !dbg !11

\"(TRY-0).landing-pad89\":                          ; preds = %\"(TRY-0).normal-dest86\", %\"(TRY-0).dispatch-header72\"
  %35 = landingpad { i8*, i32 } personality i32 (...)* @__gxx_personality_v0
          cleanup
          catch i8* @_ZTIN4core10ReturnFromE, !dbg !11
  %36 = extractvalue { i8*, i32 } %35, 0, !dbg !11
  store i8* %36, i8** %exn.slot, align 8, !dbg !11
  %37 = extractvalue { i8*, i32 } %35, 1, !dbg !11
  store i32 %37, i32* %ehselector.slot, align 4, !dbg !11
  br label %\"(TRY-0).dispatch-header72\", !dbg !11

\"(TRY-0).tagbody-#:G1485-0\":                      ; preds = %\"(TRY-0).normal-dest119\", %\"(TRY-0).normal-dest66\"
  invoke void @throw_DynamicGo(i32 0, i32 2, { {}* }* %tagbody-frame)
          to label %\"(TRY-0).normal-dest95\" unwind label %\"(TRY-0).landing-pad117.preheader\", !dbg !11

\"(TRY-0).landing-pad117.preheader\":               ; preds = %\"(TRY-0).tagbody-#:G1485-0\"
  %lpad.preheader = landingpad { i8*, i32 } personality i32 (...)* @__gxx_personality_v0
          cleanup
          catch i8* @_ZTIN4core9DynamicGoE
          catch i8* @_ZTIN4core10ReturnFromE, !dbg !11
  br label %\"(TRY-0).landing-pad117\", !dbg !11

\"(TRY-0).normal-dest95\":                          ; preds = %\"(TRY-0).tagbody-#:G1485-0\"
  call void @unreachableError(), !dbg !11
  unreachable, !dbg !11

\"(TRY-0).tagbody-#:G1483-1\":                      ; preds = %\"(TRY-0).normal-dest119\"
  call void @sp_copyLoadTimeValue({ {}* }* %5, { {}* }** @globalRunTimeValuesVector, i32 135), !dbg !11
  %\"SYMBOL->CORE::ASSERT-FAILURE\" = call { i32* }* @loadTimeSymbolReference({ {}* }** @globalRunTimeValuesVector, i32 52), !dbg !11
  invoke void @va_symbolFunction({ i32* }* %func99, { i32* }* %\"SYMBOL->CORE::ASSERT-FAILURE\")
          to label %\"(TRY-0).normal-dest100\" unwind label %\"(TRY-0).landing-pad117.split-lp\", !dbg !11

\"(TRY-0).normal-dest100\":                         ; preds = %\"(TRY-0).tagbody-#:G1483-1\"
  invoke void @sp_FUNCALL({ {}* }* %gep7, { i32* }* %func99, i32 1, { {}* }* %5)
          to label %\"(TRY-0).tagbody-#:G1484-2\" unwind label %\"(TRY-0).landing-pad117.split-lp\", !dbg !11

\"(TRY-0).tagbody-#:G1484-2\":                      ; preds = %\"(TRY-0).normal-dest100\", %\"(TRY-0).normal-dest119\"
  call void @sp_lexicalValueRead({ {}* }* %7, i32 1, i32 0, { {}* }* %tagbody-frame), !dbg !11
  %\"SYMBOL->CL:ZEROP\" = call { i32* }* @loadTimeSymbolReference({ {}* }** @globalRunTimeValuesVector, i32 41), !dbg !11
  invoke void @va_symbolFunction({ i32* }* %func107, { i32* }* %\"SYMBOL->CL:ZEROP\")
          to label %\"(TRY-0).normal-dest108\" unwind label %\"(TRY-0).landing-pad117.split-lp\", !dbg !11

\"(TRY-0).normal-dest108\":                         ; preds = %\"(TRY-0).tagbody-#:G1484-2\"
  invoke void @sp_FUNCALL({ {}* }* %6, { i32* }* %func107, i32 1, { {}* }* %7)
          to label %\"(TRY-0).normal-dest109\" unwind label %\"(TRY-0).landing-pad117.split-lp\", !dbg !11

\"(TRY-0).normal-dest109\":                         ; preds = %\"(TRY-0).normal-dest108\"
  %\"SYMBOL->CL:NOT\" = call { i32* }* @loadTimeSymbolReference({ {}* }** @globalRunTimeValuesVector, i32 53), !dbg !11
  invoke void @va_symbolFunction({ i32* }* %func110, { i32* }* %\"SYMBOL->CL:NOT\")
          to label %\"(TRY-0).normal-dest111\" unwind label %\"(TRY-0).landing-pad117.split-lp\", !dbg !11

\"(TRY-0).normal-dest111\":                         ; preds = %\"(TRY-0).normal-dest109\"
  invoke void @sp_FUNCALL({ {}* }* %if-cond-tsp, { i32* }* %func110, i32 1, { {}* }* %6)
          to label %\"(TRY-0).normal-dest112\" unwind label %\"(TRY-0).landing-pad117.split-lp\", !dbg !11

\"(TRY-0).normal-dest112\":                         ; preds = %\"(TRY-0).normal-dest111\"
  %38 = call i32 @isTrueTsp({ {}* }* %if-cond-tsp), !dbg !11
  %ifcond = icmp eq i32 %38, 1, !dbg !11
  br i1 %ifcond, label %\"(TRY-0).then\", label %\"(TRY-0).else\", !dbg !11

\"(TRY-0).then\":                                   ; preds = %\"(TRY-0).normal-dest112\"
  invoke void @throw_DynamicGo(i32 0, i32 1, { {}* }* %tagbody-frame)
          to label %\"(TRY-0).normal-dest114\" unwind label %\"(TRY-0).landing-pad117.split-lp\", !dbg !11

\"(TRY-0).normal-dest114\":                         ; preds = %\"(TRY-0).then\"
  call void @unreachableError(), !dbg !11
  unreachable, !dbg !11

\"(TRY-0).else\":                                   ; preds = %\"(TRY-0).normal-dest112\"
  call void @sp_copyLoadTimeValue({ {}* }* %gep7, { {}* }** @globalRunTimeValuesVector, i32 0), !dbg !11
  call void @sp_copyLoadTimeValue({ {}* }* %gep7, { {}* }** @globalRunTimeValuesVector, i32 0), !dbg !11
  br label %\"(TRY-0).try-cont135\", !dbg !11

\"(TRY-0).landing-pad117.split-lp\":                ; preds = %\"(TRY-0).tagbody-#:G1483-1\", %\"(TRY-0).normal-dest100\", %\"(TRY-0).tagbody-#:G1484-2\", %\"(TRY-0).normal-dest108\", %\"(TRY-0).normal-dest109\", %\"(TRY-0).normal-dest111\", %\"(TRY-0).then\"
  %lpad.split-lp = landingpad { i8*, i32 } personality i32 (...)* @__gxx_personality_v0
          cleanup
          catch i8* @_ZTIN4core9DynamicGoE
          catch i8* @_ZTIN4core10ReturnFromE, !dbg !11
  br label %\"(TRY-0).landing-pad117\"

\"(TRY-0).landing-pad117\":                         ; preds = %\"(TRY-0).landing-pad117.split-lp\", %\"(TRY-0).landing-pad117.preheader\"
  %lpad.phi = phi { i8*, i32 } [ %lpad.preheader, %\"(TRY-0).landing-pad117.preheader\" ], [ %lpad.split-lp, %\"(TRY-0).landing-pad117.split-lp\" ]
  %39 = extractvalue { i8*, i32 } %lpad.phi, 0, !dbg !11
  store i8* %39, i8** %exn.slot, align 8, !dbg !11
  %40 = extractvalue { i8*, i32 } %lpad.phi, 1, !dbg !11
  store i32 %40, i32* %ehselector.slot, align 4, !dbg !11
  call void @sp_copyLoadTimeValue({ {}* }* %gep7, { {}* }** @globalRunTimeValuesVector, i32 0), !dbg !11
  %41 = call i32 @llvm.eh.typeid.for(i8* @_ZTIN4core9DynamicGoE), !dbg !11
  %42 = icmp eq i32 %40, %41, !dbg !11
  br i1 %42, label %\"(TRY-0).handler-block13690\", label %\"(TRY-0).dispatch-header130\", !dbg !11

\"(TRY-0).handler-block13690\":                     ; preds = %\"(TRY-0).landing-pad117\"
  %43 = call i8* @__cxa_begin_catch(i8* %39), !dbg !11
  %44 = invoke i32 @tagbodyDynamicGoIndexElseRethrow({ {}* }* %tagbody-frame, i8* %43)
          to label %\"(TRY-0).normal-dest119\" unwind label %\"(TRY-0).landing-pad125.loopexit\", !dbg !11

\"(TRY-0).normal-dest119\":                         ; preds = %\"(TRY-0).handler-block13690\"
  switch i32 %44, label %\"(TRY-0).switch-default\" [
    i32 0, label %\"(TRY-0).tagbody-#:G1485-0\"
    i32 1, label %\"(TRY-0).tagbody-#:G1483-1\"
    i32 2, label %\"(TRY-0).tagbody-#:G1484-2\"
  ], !dbg !11

\"(TRY-0).switch-default\":                         ; preds = %\"(TRY-0).normal-dest119\"
  invoke void @throwIllegalSwitchValue(i32 %44, i32 3)
          to label %\"(TRY-0).normal-dest120\" unwind label %\"(TRY-0).landing-pad125.nonloopexit\", !dbg !11

\"(TRY-0).normal-dest120\":                         ; preds = %\"(TRY-0).switch-default\"
  call void @unreachableError(), !dbg !11
  unreachable, !dbg !11

\"(TRY-0).landing-pad125.loopexit\":                ; preds = %\"(TRY-0).handler-block13690\"
  %lpad.loopexit = landingpad { i8*, i32 } personality i32 (...)* @__gxx_personality_v0
          cleanup
          catch i8* @_ZTIN4core10ReturnFromE, !dbg !11
  br label %\"(TRY-0).landing-pad125\"

\"(TRY-0).landing-pad125.nonloopexit\":             ; preds = %\"(TRY-0).switch-default\"
  %lpad.nonloopexit = landingpad { i8*, i32 } personality i32 (...)* @__gxx_personality_v0
          cleanup
          catch i8* @_ZTIN4core10ReturnFromE, !dbg !11
  br label %\"(TRY-0).landing-pad125\"

\"(TRY-0).landing-pad125\":                         ; preds = %\"(TRY-0).landing-pad125.nonloopexit\", %\"(TRY-0).landing-pad125.loopexit\"
  %lpad.phi199 = phi { i8*, i32 } [ %lpad.loopexit, %\"(TRY-0).landing-pad125.loopexit\" ], [ %lpad.nonloopexit, %\"(TRY-0).landing-pad125.nonloopexit\" ]
  %45 = extractvalue { i8*, i32 } %lpad.phi199, 0, !dbg !11
  store i8* %45, i8** %exn.slot, align 8, !dbg !11
  %46 = extractvalue { i8*, i32 } %lpad.phi199, 1, !dbg !11
  store i32 %46, i32* %ehselector.slot, align 4, !dbg !11
  br label %\"(TRY-0).dispatch-header130\", !dbg !11

\"(TRY-0).dispatch-header130\":                     ; preds = %\"(TRY-0).landing-pad117\", %\"(TRY-0).normal-dest87\", %\"(TRY-0).landing-pad125\"
  %exn132190 = phi i8* [ %45, %\"(TRY-0).landing-pad125\" ], [ %exn132191, %\"(TRY-0).normal-dest87\" ], [ %39, %\"(TRY-0).landing-pad117\" ]
  %ehselector-slot131186 = phi i32 [ %46, %\"(TRY-0).landing-pad125\" ], [ %ehselector-slot131187, %\"(TRY-0).normal-dest87\" ], [ %40, %\"(TRY-0).landing-pad117\" ]
  %47 = call i32 @llvm.eh.typeid.for(i8* @_ZTIN4core10ReturnFromE), !dbg !11
  %48 = icmp eq i32 %ehselector-slot131186, %47, !dbg !11
  br i1 %48, label %\"(TRY-0).handler-block13712\", label %\"(TRY-0).dispatch-header141\", !dbg !11

\"(TRY-0).handler-block13712\":                     ; preds = %\"(TRY-0).dispatch-header130\"
  %49 = call i8* @__cxa_begin_catch(i8* %exn132190), !dbg !11
  invoke void @sp_blockHandleReturnFrom({ {}* }* %gep7, i8* %49)
          to label %\"(TRY-0).normal-dest133\" unwind label %\"(TRY-0).landing-pad140\", !dbg !11

\"(TRY-0).normal-dest133\":                         ; preds = %\"(TRY-0).handler-block13712\"
  invoke void @__cxa_end_catch()
          to label %\"(TRY-0).try-cont135\" unwind label %\"(TRY-0).landing-pad140\", !dbg !11

\"(TRY-0).try-cont135\":                            ; preds = %\"(TRY-0).normal-dest133\", %\"(TRY-0).else\"
  %\"SYMBOL->CL:FORMAT\" = call { i32* }* @loadTimeSymbolReference({ {}* }** @globalRunTimeValuesVector, i32 32), !dbg !11
  invoke void @va_symbolFunction({ i32* }* %func136, { i32* }* %\"SYMBOL->CL:FORMAT\")
          to label %\"(TRY-0).normal-dest137\" unwind label %\"(TRY-0).landing-pad140\", !dbg !11

\"(TRY-0).normal-dest137\":                         ; preds = %\"(TRY-0).try-cont135\"
  %50 = bitcast [3 x { {}* }]* %0 to { {}* }*
  invoke void @mv_FUNCALL({ {}*, i32 }* %result-ptr, { i32* }* %func136, i32 3, { {}* }* %50)
          to label %\"(TRY-0).try-cont148\" unwind label %\"(TRY-0).landing-pad140\", !dbg !11

\"(TRY-0).landing-pad140\":                         ; preds = %\"(TRY-0).normal-dest137\", %\"(TRY-0).try-cont135\", %\"(TRY-0).normal-dest133\", %\"(TRY-0).handler-block13712\"
  %51 = landingpad { i8*, i32 } personality i32 (...)* @__gxx_personality_v0
          cleanup
          catch i8* @_ZTIN4core10ReturnFromE, !dbg !11
  %52 = extractvalue { i8*, i32 } %51, 0, !dbg !11
  store i8* %52, i8** %exn.slot, align 8, !dbg !11
  %53 = extractvalue { i8*, i32 } %51, 1, !dbg !11
  store i32 %53, i32* %ehselector.slot, align 4, !dbg !11
  %.pre = call i32 @llvm.eh.typeid.for(i8* @_ZTIN4core10ReturnFromE), !dbg !11
  br label %\"(TRY-0).dispatch-header141\", !dbg !11

\"(TRY-0).dispatch-header141\":                     ; preds = %\"(TRY-0).landing-pad140\", %\"(TRY-0).dispatch-header130\"
  %.pre-phi = phi i32 [ %.pre, %\"(TRY-0).landing-pad140\" ], [ %47, %\"(TRY-0).dispatch-header130\" ], !dbg !11
  %exn145 = phi i8* [ %52, %\"(TRY-0).landing-pad140\" ], [ %exn132190, %\"(TRY-0).dispatch-header130\" ]
  %ehselector-slot143 = phi i32 [ %53, %\"(TRY-0).landing-pad140\" ], [ %ehselector-slot131186, %\"(TRY-0).dispatch-header130\" ]
  %54 = icmp eq i32 %ehselector-slot143, %.pre-phi, !dbg !11
  br i1 %54, label %\"(TRY-0).handler-block13712144\", label %\"(TRY-0).func-ehcleanup\", !dbg !11

\"(TRY-0).handler-block13712144\":                  ; preds = %\"(TRY-0).dispatch-header141\"
  %55 = call i8* @__cxa_begin_catch(i8* %exn145), !dbg !11
  invoke void @mv_blockHandleReturnFrom({ {}*, i32 }* %result-ptr, i8* %55)
          to label %\"(TRY-0).normal-dest146\" unwind label %\"(TRY-0).landing-pad150\", !dbg !11

\"(TRY-0).normal-dest146\":                         ; preds = %\"(TRY-0).handler-block13712144\"
  invoke void @__cxa_end_catch()
          to label %\"(TRY-0).try-cont148\" unwind label %\"(TRY-0).landing-pad150\", !dbg !11

\"(TRY-0).try-cont148\":                            ; preds = %\"(TRY-0).normal-dest146\", %\"(TRY-0).normal-dest137\"
  %56 = bitcast [2 x { {}* }]* %4 to { {}* }*
  %57 = bitcast [2 x { {}* }]* %3 to { {}* }*
  %58 = bitcast [2 x { {}* }]* %2 to { {}* }*
  %59 = bitcast [2 x { {}* }]* %1 to { {}* }*
  %60 = bitcast [3 x { {}* }]* %0 to { {}* }*
  call void @destructFunction_sp({ i32* }* %func136), !dbg !11
  call void @destructTsp({ {}* }* %temp113), !dbg !11
  call void @destructFunction_sp({ i32* }* %func110), !dbg !11
  call void @destructFunction_sp({ i32* }* %func107), !dbg !11
  call void @destructTsp({ {}* }* %7), !dbg !11
  call void @destructTsp({ {}* }* %6), !dbg !11
  call void @destructTsp({ {}* }* %if-cond-tsp), !dbg !11
  call void @destructTsp({ {}* }* %temp102), !dbg !11
  call void @destructFunction_sp({ i32* }* %func99), !dbg !11
  call void @destructTsp({ {}* }* %5), !dbg !11
  call void @destructTsp({ {}* }* %temp96), !dbg !11
  call void @destructTsp({ {}* }* %temp94), !dbg !11
  call void @destructAFsp({ {}* }* %tagbody-frame), !dbg !11
  call void @destructFunction_sp({ i32* }* %func84), !dbg !11
  call void @destructTsp({ {}* }* %56), !dbg !11
  call void @destructTsp({ {}* }* %gep81), !dbg !11
  call void @destructTsp({ {}* }* %tsetq79), !dbg !11
  call void @destructTsp({ {}* }* %temp78), !dbg !11
  call void @destructAFsp({ {}* }* %\"LET*74\"), !dbg !11
  call void @destructTsp({ {}* }* %temp73), !dbg !11
  call void @destructFunction_sp({ i32* }* %func63), !dbg !11
  call void @destructTsp({ {}* }* %57), !dbg !11
  call void @destructTsp({ {}* }* %gep60), !dbg !11
  call void @destructTsp({ {}* }* %tsetq58), !dbg !11
  call void @destructTsp({ {}* }* %temp57), !dbg !11
  call void @destructAFsp({ {}* }* %\"LET*53\"), !dbg !11
  call void @destructTsp({ {}* }* %temp52), !dbg !11
  call void @destructFunction_sp({ i32* }* %func42), !dbg !11
  call void @destructTsp({ {}* }* %58), !dbg !11
  call void @destructTsp({ {}* }* %gep39), !dbg !11
  call void @destructTsp({ {}* }* %tsetq37), !dbg !11
  call void @destructTsp({ {}* }* %temp36), !dbg !11
  call void @destructAFsp({ {}* }* %\"LET*32\"), !dbg !11
  call void @destructTsp({ {}* }* %temp31), !dbg !11
  call void @destructFunction_sp({ i32* }* %func), !dbg !11
  call void @destructTsp({ {}* }* %59), !dbg !11
  call void @destructTsp({ {}* }* %gep23), !dbg !11
  call void @destructTsp({ {}* }* %tsetq), !dbg !11
  call void @destructTsp({ {}* }* %temp21), !dbg !11
  call void @destructAFsp({ {}* }* %\"LET*\"), !dbg !11
  call void @destructTsp({ {}* }* %temp18), !dbg !11
  call void @destructTsp({ {}* }* %unwind-protect-saved-values15), !dbg !11
  call void @destructTmv({ {}*, i32 }* %temp-mv-result14), !dbg !11
  call void @destructTsp({ {}* }* %unwind-protect-saved-values), !dbg !11
  call void @destructTmv({ {}*, i32 }* %temp-mv-result), !dbg !11
  call void @destructTsp({ {}* }* %temp12), !dbg !11
  call void @destructAFsp({ {}* }* %LET), !dbg !11
  call void @destructTsp({ {}* }* %temp9), !dbg !11
  call void @destructTsp({ {}* }* %60), !dbg !11
  call void @destructTsp({ {}* }* %gep6), !dbg !11
  call void @destructTsp({ {}* }* %gep7), !dbg !11
  call void @destructTsp({ {}* }* %temp), !dbg !11
  call void @destructAFsp({ {}* }* %lambda-args-39-), !dbg !11
  ret void, !dbg !11

\"(TRY-0).landing-pad150\":                         ; preds = %\"(TRY-0).normal-dest146\", %\"(TRY-0).handler-block13712144\"
  %61 = landingpad { i8*, i32 } personality i32 (...)* @__gxx_personality_v0
          cleanup, !dbg !11
  %62 = extractvalue { i8*, i32 } %61, 0, !dbg !11
  store i8* %62, i8** %exn.slot, align 8, !dbg !11
  %63 = extractvalue { i8*, i32 } %61, 1, !dbg !11
  store i32 %63, i32* %ehselector.slot, align 4, !dbg !11
  br label %\"(TRY-0).func-ehcleanup\", !dbg !11

\"(TRY-0).func-cleanup-landing-pad\":               ; preds = %\"(TRY-0).continue3\", %\"(TRY-0).continue\", %\"(TRY-0).error1\"
  %64 = landingpad { i8*, i32 } personality i32 (...)* @__gxx_personality_v0
          cleanup, !dbg !11
  %65 = extractvalue { i8*, i32 } %64, 0, !dbg !11
  store i8* %65, i8** %exn.slot, align 8, !dbg !11
  %66 = extractvalue { i8*, i32 } %64, 1, !dbg !11
  store i32 %66, i32* %ehselector.slot, align 4, !dbg !11
  br label %\"(TRY-0).func-ehcleanup\", !dbg !11

\"(TRY-0).func-ehcleanup\":                         ; preds = %\"(TRY-0).dispatch-header141\", %\"(TRY-0).landing-pad150\", %\"(TRY-0).func-cleanup-landing-pad\"
  %sel = phi i32 [ %66, %\"(TRY-0).func-cleanup-landing-pad\" ], [ %63, %\"(TRY-0).landing-pad150\" ], [ %ehselector-slot143, %\"(TRY-0).dispatch-header141\" ]
  %exn7 = phi i8* [ %65, %\"(TRY-0).func-cleanup-landing-pad\" ], [ %62, %\"(TRY-0).landing-pad150\" ], [ %exn145, %\"(TRY-0).dispatch-header141\" ]
  %67 = bitcast [2 x { {}* }]* %4 to { {}* }*
  %68 = bitcast [2 x { {}* }]* %3 to { {}* }*
  %69 = bitcast [2 x { {}* }]* %2 to { {}* }*
  %70 = bitcast [2 x { {}* }]* %1 to { {}* }*
  %71 = bitcast [3 x { {}* }]* %0 to { {}* }*
  call void @destructFunction_sp({ i32* }* %func136), !dbg !11
  call void @destructTsp({ {}* }* %temp113), !dbg !11
  call void @destructFunction_sp({ i32* }* %func110), !dbg !11
  call void @destructFunction_sp({ i32* }* %func107), !dbg !11
  call void @destructTsp({ {}* }* %7), !dbg !11
  call void @destructTsp({ {}* }* %6), !dbg !11
  call void @destructTsp({ {}* }* %if-cond-tsp), !dbg !11
  call void @destructTsp({ {}* }* %temp102), !dbg !11
  call void @destructFunction_sp({ i32* }* %func99), !dbg !11
  call void @destructTsp({ {}* }* %5), !dbg !11
  call void @destructTsp({ {}* }* %temp96), !dbg !11
  call void @destructTsp({ {}* }* %temp94), !dbg !11
  call void @destructAFsp({ {}* }* %tagbody-frame), !dbg !11
  call void @destructFunction_sp({ i32* }* %func84), !dbg !11
  call void @destructTsp({ {}* }* %67), !dbg !11
  call void @destructTsp({ {}* }* %gep81), !dbg !11
  call void @destructTsp({ {}* }* %tsetq79), !dbg !11
  call void @destructTsp({ {}* }* %temp78), !dbg !11
  call void @destructAFsp({ {}* }* %\"LET*74\"), !dbg !11
  call void @destructTsp({ {}* }* %temp73), !dbg !11
  call void @destructFunction_sp({ i32* }* %func63), !dbg !11
  call void @destructTsp({ {}* }* %68), !dbg !11
  call void @destructTsp({ {}* }* %gep60), !dbg !11
  call void @destructTsp({ {}* }* %tsetq58), !dbg !11
  call void @destructTsp({ {}* }* %temp57), !dbg !11
  call void @destructAFsp({ {}* }* %\"LET*53\"), !dbg !11
  call void @destructTsp({ {}* }* %temp52), !dbg !11
  call void @destructFunction_sp({ i32* }* %func42), !dbg !11
  call void @destructTsp({ {}* }* %69), !dbg !11
  call void @destructTsp({ {}* }* %gep39), !dbg !11
  call void @destructTsp({ {}* }* %tsetq37), !dbg !11
  call void @destructTsp({ {}* }* %temp36), !dbg !11
  call void @destructAFsp({ {}* }* %\"LET*32\"), !dbg !11
  call void @destructTsp({ {}* }* %temp31), !dbg !11
  call void @destructFunction_sp({ i32* }* %func), !dbg !11
  call void @destructTsp({ {}* }* %70), !dbg !11
  call void @destructTsp({ {}* }* %gep23), !dbg !11
  call void @destructTsp({ {}* }* %tsetq), !dbg !11
  call void @destructTsp({ {}* }* %temp21), !dbg !11
  call void @destructAFsp({ {}* }* %\"LET*\"), !dbg !11
  call void @destructTsp({ {}* }* %temp18), !dbg !11
  call void @destructTsp({ {}* }* %unwind-protect-saved-values15), !dbg !11
  call void @destructTmv({ {}*, i32 }* %temp-mv-result14), !dbg !11
  call void @destructTsp({ {}* }* %unwind-protect-saved-values), !dbg !11
  call void @destructTmv({ {}*, i32 }* %temp-mv-result), !dbg !11
  call void @destructTsp({ {}* }* %temp12), !dbg !11
  call void @destructAFsp({ {}* }* %LET), !dbg !11
  call void @destructTsp({ {}* }* %temp9), !dbg !11
  call void @destructTsp({ {}* }* %71), !dbg !11
  call void @destructTsp({ {}* }* %gep6), !dbg !11
  call void @destructTsp({ {}* }* %gep7), !dbg !11
  call void @destructTsp({ {}* }* %temp), !dbg !11
  call void @destructAFsp({ {}* }* %lambda-args-39-), !dbg !11
  call void @_Unwind_Resume(i8* %exn7)
  unreachable
}