	.section	__TEXT,__text,regular,pure_instructions
	.section	__TEXT,__text,regular,pure_instructions
Ltext_begin:
	.section	__DATA,__data
	.section	__TEXT,__text,regular,pure_instructions
	.align	4, 0x90
_lambda:                                ## @lambda
	.cfi_startproc
	.cfi_personality 155, ___gxx_personality_v0
Leh_func_begin0:
	.cfi_lsda 16, Lexception0
Lfunc_begin0:
## BB#0:                                ## %entry
Ltmp16:
	pushq	%r15
Ltmp17:
	.cfi_def_cfa_offset 16
	pushq	%r14
Ltmp18:
	.cfi_def_cfa_offset 24
	pushq	%r13
Ltmp19:
	.cfi_def_cfa_offset 32
	pushq	%r12
Ltmp20:
	.cfi_def_cfa_offset 40
	pushq	%rbx
Ltmp21:
	.cfi_def_cfa_offset 48
	subq	$80, %rsp
Ltmp22:
	.cfi_def_cfa_offset 128
Ltmp23:
	.cfi_offset %rbx, -48
Ltmp24:
	.cfi_offset %r12, -40
Ltmp25:
	.cfi_offset %r13, -32
Ltmp26:
	.cfi_offset %r14, -24
Ltmp27:
	.cfi_offset %r15, -16
	movq	%rsi, %rbx
	movq	%rdi, %r14
	movl	$0, 68(%rsp)
	leaq	48(%rsp), %rdi
	callq	_newAFsp
	leaq	32(%rsp), %rdi
	callq	_newTsp
	leaq	16(%rsp), %rdi
	callq	_newTsp
	leaq	(%rsp), %rdi
	callq	_newAFsp
	movq	%rbx, %rdi
	callq	_activationFrameSize
	testl	%eax, %eax
	jne	LBB0_1
LBB0_4:                                 ## %continue3
	leaq	48(%rsp), %r15
	movq	%r15, %rdi
	movq	%rbx, %rsi
	callq	_copyAFsp
	movq	_globalRunTimeValuesVector@GOTPCREL(%rip), %r12
	movq	%r12, %rdi
	movl	$26, %esi
	callq	_loadTimeValueReference
	movq	%r15, %rdi
	movq	%rax, %rsi
	callq	_attachDebuggingInfoToValueFrame
	movl	$2, %edi
	movl	$25, %esi
Ltmp28:
Ltmp29:
	callq	_trace_setLineNumberColumnForIHSTop
	leaq	(%rsp), %rbx
	movq	%rbx, %rdi
	movl	$3, %esi
	movl	$2000033, %edx          ## imm = 0x1E84A1
	callq	_makeValueFrame
	movq	%rbx, %rdi
	movq	%r15, %rsi
	callq	_setParentOfActivationFrame
	movq	%rbx, %rdi
	xorl	%esi, %esi
	callq	_valueFrameReference
	movq	%rax, %rdi
	movq	%r12, %rsi
	movl	$5, %edx
	callq	_sp_copyLoadTimeValue
	movq	%rbx, %rdi
	movl	$1, %esi
	callq	_valueFrameReference
	movq	%rax, %r13
	movq	%r12, %rdi
	movl	$33, %esi
	callq	_loadTimeValueReference
	movq	%rax, %rbx
	movq	%r12, %rdi
	movl	$5, %esi
	callq	_loadTimeValueReference
	leaq	"_MATCH-DIMENSIONS"(%rip), %rsi
	leaq	"_:::global-str-/Users/meister/DEVELOPMENT/CANDO/BRCL/SRC/LISP/KERNEL/LSP/test_matchdim.lsp"(%rip), %rdx
Ltmp5:
	movq	%r13, %rdi
	movq	%rax, %rcx
	movq	%rbx, %r8
	movq	%r15, %r9
	callq	_sp_makeCompiledFunction
Ltmp6:
## BB#5:                                ## %(TRY-0).normal-dest
	leaq	(%rsp), %r15
	movq	%r15, %rdi
	movl	$2, %esi
	callq	_valueFrameReference
	movq	_globalRunTimeValuesVector@GOTPCREL(%rip), %rbx
	movq	%rax, %rdi
	movq	%rbx, %rsi
	xorl	%edx, %edx
	callq	_sp_copyLoadTimeValue
	callq	_singleStepCallback
	movq	%rbx, %rdi
	movl	$13, %esi
	callq	_loadTimeSymbolReference
	leaq	16(%rsp), %rdi
Ltmp7:
	movq	%rax, %rsi
	movq	%r15, %rdx
	callq	_sp_invokePossibleMultipleValueSymbolFunction
Ltmp8:
## BB#6:                                ## %(TRY-0).normal-dest5
	leaq	16(%rsp), %r15
	movq	_globalRunTimeValuesVector@GOTPCREL(%rip), %rbx
	movq	%r15, %rdi
	movq	%rbx, %rsi
	xorl	%edx, %edx
	callq	_sp_copyLoadTimeValue
	movq	%r14, %rdi
	movq	%rbx, %rsi
	movl	$5, %edx
	callq	_mv_copyLoadTimeValue
	leaq	(%rsp), %rdi
	callq	_destructAFsp
	movq	%r15, %rdi
	callq	_destructTsp
	leaq	32(%rsp), %rdi
	callq	_destructTsp
	leaq	48(%rsp), %rdi
	callq	_destructAFsp
	addq	$80, %rsp
	popq	%rbx
	popq	%r12
	popq	%r13
	popq	%r14
	popq	%r15
	ret
LBB0_1:                                 ## %error
	testl	%eax, %eax
	jns	LBB0_3
## BB#2:                                ## %error1
Ltmp2:
	leaq	"_:::global-str-lambda"(%rip), %rcx
	movq	%rcx, %rdi
	movq	%rbx, %rsi
	movl	%eax, %edx
	xorl	%ecx, %ecx
	callq	_throwNotEnoughArgumentsException
Ltmp3:
LBB0_3:                                 ## %continue
Ltmp0:
	leaq	"_:::global-str-lambda"(%rip), %rcx
	movq	%rcx, %rdi
	movq	%rbx, %rsi
	movl	%eax, %edx
	xorl	%ecx, %ecx
	callq	_throwTooManyArgumentsException
Ltmp1:
	jmp	LBB0_4
LBB0_8:                                 ## %func-cleanup-landing-pad
Ltmp4:
	jmp	LBB0_9
LBB0_7:                                 ## %(TRY-0).landing-pad
Ltmp9:
LBB0_9:                                 ## %func-ehcleanup
	movq	%rdx, %rcx
	movq	%rax, %rbx
	movq	%rbx, 72(%rsp)
	movl	%ecx, 68(%rsp)
	leaq	(%rsp), %rax
	movq	%rax, %rdi
	callq	_destructAFsp
	leaq	16(%rsp), %rax
	movq	%rax, %rdi
	callq	_destructTsp
	leaq	32(%rsp), %rax
	movq	%rax, %rdi
	callq	_destructTsp
	leaq	48(%rsp), %rax
	movq	%rax, %rdi
	callq	_destructAFsp
	movl	$90, %edi
	callq	_debugPrintI32
	movl	$91, %edi
	callq	_debugPrintI32
	movq	%rbx, %rdi
	callq	__Unwind_Resume
Ltmp30:
Lfunc_end0:
	.cfi_endproc
Leh_func_end0:
	.section	__TEXT,__gcc_except_tab
	.align	2
GCC_except_table0:
Lexception0:
	.byte	255                     ## @LPStart Encoding = omit
	.byte	155                     ## @TType Encoding = indirect pcrel sdata4
	.byte	41                      ## @TType base offset
	.byte	3                       ## Call site Encoding = udata4
	.byte	39                      ## Call site table length
Lset0 = Ltmp5-Leh_func_begin0           ## >> Call Site 1 <<
	.long	Lset0
Lset1 = Ltmp8-Ltmp5                     ##   Call between Ltmp5 and Ltmp8
	.long	Lset1
Lset2 = Ltmp9-Leh_func_begin0           ##     jumps to Ltmp9
	.long	Lset2
	.byte	0                       ##   On action: cleanup
Lset3 = Ltmp2-Leh_func_begin0           ## >> Call Site 2 <<
	.long	Lset3
Lset4 = Ltmp1-Ltmp2                     ##   Call between Ltmp2 and Ltmp1
	.long	Lset4
Lset5 = Ltmp4-Leh_func_begin0           ##     jumps to Ltmp4
	.long	Lset5
	.byte	0                       ##   On action: cleanup
Lset6 = Ltmp1-Leh_func_begin0           ## >> Call Site 3 <<
	.long	Lset6
Lset7 = Leh_func_end0-Ltmp1             ##   Call between Ltmp1 and Leh_func_end0
	.long	Lset7
	.long	0                       ##     has no landing pad
	.byte	0                       ##   On action: cleanup
	.align	2

	.section	__TEXT,__text,regular,pure_instructions
	.align	4, 0x90
"_MATCH-DIMENSIONS":                    ## @MATCH-DIMENSIONS
	.cfi_startproc
	.cfi_personality 155, ___gxx_personality_v0
Leh_func_begin1:
	.cfi_lsda 16, Lexception1
Lfunc_begin1:
## BB#0:                                ## %(TRY-0).entry
Ltmp87:
	pushq	%rbp
Ltmp88:
	.cfi_def_cfa_offset 16
	pushq	%r15
Ltmp89:
	.cfi_def_cfa_offset 24
	pushq	%r14
Ltmp90:
	.cfi_def_cfa_offset 32
	pushq	%r13
Ltmp91:
	.cfi_def_cfa_offset 40
	pushq	%r12
Ltmp92:
	.cfi_def_cfa_offset 48
	pushq	%rbx
Ltmp93:
	.cfi_def_cfa_offset 56
	subq	$600, %rsp              ## imm = 0x258
Ltmp94:
	.cfi_def_cfa_offset 656
Ltmp95:
	.cfi_offset %rbx, -56
Ltmp96:
	.cfi_offset %r12, -48
Ltmp97:
	.cfi_offset %r13, -40
Ltmp98:
	.cfi_offset %r14, -32
Ltmp99:
	.cfi_offset %r15, -24
Ltmp100:
	.cfi_offset %rbp, -16
	movq	%rsi, %rbx
	movq	%rdi, %r13
	movl	$0, 588(%rsp)
	leaq	568(%rsp), %rdi
	callq	_newAFsp
	leaq	552(%rsp), %rdi
	callq	_newTsp
	leaq	536(%rsp), %rdi
	callq	_newAFsp
	leaq	520(%rsp), %rdi
	callq	_newTsp
	leaq	504(%rsp), %rdi
	callq	_newTsp
	leaq	488(%rsp), %rdi
	callq	_newAFsp
	leaq	472(%rsp), %rdi
	callq	_newAFsp
	leaq	456(%rsp), %rdi
	callq	_newTsp
	leaq	440(%rsp), %rdi
	callq	_newTsp
	leaq	424(%rsp), %rdi
	callq	_newAFsp
	leaq	408(%rsp), %rdi
	callq	_newAFsp
	leaq	392(%rsp), %rdi
	callq	_newTsp
	leaq	376(%rsp), %rdi
	callq	_newAFsp
	leaq	360(%rsp), %rdi
	callq	_newTsp
	leaq	344(%rsp), %rdi
	callq	_newAFsp
	leaq	328(%rsp), %rdi
	callq	_newTsp
	leaq	312(%rsp), %rdi
	callq	_newAFsp
	leaq	296(%rsp), %rdi
	callq	_newTsp
	leaq	280(%rsp), %rdi
	callq	_newTsp
	leaq	264(%rsp), %rdi
	callq	_newTsp
	leaq	248(%rsp), %rdi
	callq	_newAFsp
	leaq	232(%rsp), %rdi
	callq	_newTsp
	leaq	216(%rsp), %rdi
	callq	_newAFsp
	leaq	200(%rsp), %rdi
	callq	_newTsp
	leaq	184(%rsp), %rdi
	callq	_newAFsp
	leaq	168(%rsp), %rdi
	callq	_newTsp
	leaq	152(%rsp), %rdi
	callq	_newTsp
	leaq	136(%rsp), %rdi
	callq	_newAFsp
	leaq	120(%rsp), %rdi
	callq	_newTsp
	leaq	104(%rsp), %rdi
	callq	_newAFsp
	leaq	88(%rsp), %rdi
	callq	_newTsp
	leaq	72(%rsp), %rdi
	callq	_newAFsp
	leaq	56(%rsp), %rdi
	callq	_newAFsp
	movq	%rbx, %rdi
	callq	_activationFrameSize
	cmpl	$2, %eax
	jne	LBB1_1
LBB1_4:                                 ## %(TRY-0).continue3
	leaq	568(%rsp), %rbp
	movq	%rbp, %rdi
	movq	%rbx, %rsi
	callq	_copyAFsp
	movq	_globalRunTimeValuesVector@GOTPCREL(%rip), %r14
	movq	%r14, %rdi
	movl	$27, %esi
	callq	_loadTimeValueReference
	movq	%rbp, %rdi
	movq	%rax, %rsi
	callq	_attachDebuggingInfoToValueFrame
	movq	%rbp, %rdi
	callq	_trace_setActivationFrameForIHSTop
	leaq	536(%rsp), %rbx
Ltmp101:
Ltmp102:
	movq	%rbx, %rdi
	callq	_trace_setActivationFrameForIHSTop
	movq	%rbx, %rdi
	movl	$1, %esi
	movl	$2000034, %edx          ## imm = 0x1E84A2
	callq	_makeValueFrame
	movq	%rbx, %rdi
	movq	%rbp, %rsi
	callq	_setParentOfActivationFrame
	movq	%r14, %rdi
	movl	$28, %esi
	callq	_loadTimeValueReference
	movq	%rbx, %rdi
	movq	%rax, %rsi
	callq	_attachDebuggingInfoToValueFrame
	xorl	%edi, %edi
	xorl	%esi, %esi
	movq	%rbx, %rdx
	callq	_lexicalValueReference
	movq	%rax, %rdi
	movq	%r14, %rsi
	xorl	%edx, %edx
	callq	_sp_copyLoadTimeValue
	movq	%rbx, %rdi
	callq	_trace_setActivationFrameForIHSTop
	callq	_singleStepCallback
	leaq	504(%rsp), %rbp
	movq	%rbp, %rdi
	xorl	%esi, %esi
	xorl	%edx, %edx
	movq	%rbx, %rcx
	callq	_sp_lexicalValueRead
	movq	%rbp, %rdi
	callq	_isTrueTsp
	cmpl	$1, %eax
	jne	LBB1_6
## BB#5:                                ## %(TRY-0).then
	leaq	536(%rsp), %rcx
	movq	%r13, %rdi
	xorl	%esi, %esi
	xorl	%edx, %edx
	callq	_mv_lexicalValueRead
	jmp	LBB1_43
LBB1_6:                                 ## %(TRY-0).else
	leaq	488(%rsp), %rbx
Ltmp103:
Ltmp104:
	movq	%rbx, %rdi
	callq	_trace_setActivationFrameForIHSTop
	movq	%rbx, %rdi
	movl	$1, %esi
	movl	$2000035, %edx          ## imm = 0x1E84A3
	callq	_makeValueFrame
	leaq	536(%rsp), %r15
	movq	%rbx, %rdi
	movq	%r15, %rsi
	callq	_setParentOfActivationFrame
	movq	_globalRunTimeValuesVector@GOTPCREL(%rip), %r14
	movq	%r14, %rdi
	movl	$29, %esi
	callq	_loadTimeValueReference
	movq	%rbx, %rdi
	movq	%rax, %rsi
	callq	_attachDebuggingInfoToValueFrame
	xorl	%edi, %edi
	xorl	%esi, %esi
	movq	%rbx, %rdx
	callq	_lexicalValueReference
	movq	%rax, %rbx
	movl	$4, %edi
	movl	$19, %esi
Ltmp105:
Ltmp106:
	callq	_trace_setLineNumberColumnForIHSTop
	leaq	472(%rsp), %rbp
	movq	%rbp, %rdi
	movl	$1, %esi
	movl	$2000036, %edx          ## imm = 0x1E84A4
	callq	_makeValueFrame
	movq	%rbp, %rdi
	movq	%r15, %rsi
	callq	_setParentOfActivationFrame
	movq	%rbp, %rdi
	xorl	%esi, %esi
	callq	_valueFrameReference
	movq	%rax, %rdi
	movl	$1, %esi
	xorl	%edx, %edx
	movq	%r15, %rcx
	callq	_sp_lexicalValueRead
	callq	_singleStepCallback
	movq	%r14, %rdi
	movl	$1, %esi
	callq	_loadTimeSymbolReference
Ltmp36:
	movq	%rbx, %rdi
	movq	%rax, %rsi
	movq	%rbp, %rdx
	callq	_sp_invokePossibleMultipleValueSymbolFunction
Ltmp37:
## BB#7:                                ## %(TRY-0).normal-dest12
	leaq	488(%rsp), %rbx
	movq	%rbx, %rdi
	callq	_trace_setActivationFrameForIHSTop
	callq	_singleStepCallback
	movl	$5, %edi
	movl	$9, %esi
Ltmp107:
	callq	_trace_setLineNumberColumnForIHSTop
	leaq	424(%rsp), %rbp
	movq	%rbp, %rdi
	movl	$1, %esi
	movl	$2000037, %edx          ## imm = 0x1E84A5
	callq	_makeValueFrame
	movq	%rbp, %rdi
	movq	%rbx, %rsi
	callq	_setParentOfActivationFrame
	movq	%rbp, %rdi
	xorl	%esi, %esi
	callq	_valueFrameReference
	movq	%rax, %rdi
	movl	$2, %esi
	movl	$1, %edx
	movq	%rbx, %rcx
	callq	_sp_lexicalValueRead
	callq	_singleStepCallback
	movq	_globalRunTimeValuesVector@GOTPCREL(%rip), %rdi
	movl	$2, %esi
	callq	_loadTimeSymbolReference
	leaq	440(%rsp), %rdi
Ltmp38:
	movq	%rax, %rsi
	movq	%rbp, %rdx
	callq	_sp_invokePossibleMultipleValueSymbolFunction
Ltmp39:
## BB#8:                                ## %(TRY-0).normal-dest16
	leaq	440(%rsp), %rdi
	callq	_isTrueTsp
	cmpl	$1, %eax
	jne	LBB1_10
## BB#9:                                ## %(TRY-0).then18
	movl	$5, %edi
	movl	$23, %esi
Ltmp108:
	callq	_trace_setLineNumberColumnForIHSTop
	leaq	408(%rsp), %rbx
	movq	%rbx, %rdi
	movl	$2, %esi
	movl	$2000038, %edx          ## imm = 0x1E84A6
	callq	_makeValueFrame
	leaq	488(%rsp), %rbp
	movq	%rbx, %rdi
	movq	%rbp, %rsi
	callq	_setParentOfActivationFrame
	movq	%rbx, %rdi
	xorl	%esi, %esi
	callq	_valueFrameReference
	movq	%rax, %rdi
	xorl	%esi, %esi
	xorl	%edx, %edx
	movq	%rbp, %rcx
	callq	_sp_lexicalValueRead
	movq	%rbx, %rdi
	movl	$1, %esi
	callq	_valueFrameReference
	movq	%rax, %rdi
	movl	$2, %esi
	movl	$1, %edx
	movq	%rbp, %rcx
	callq	_sp_lexicalValueRead
	callq	_singleStepCallback
	movq	_globalRunTimeValuesVector@GOTPCREL(%rip), %rdi
	movl	$3, %esi
	callq	_loadTimeSymbolReference
Ltmp72:
	movq	%r13, %rdi
	movq	%rax, %rsi
	movq	%rbx, %rdx
	callq	_mv_invokePossibleMultipleValueSymbolFunction
Ltmp73:
	jmp	LBB1_43
LBB1_10:                                ## %(TRY-0).else21
	movl	$6, %edi
	movl	$9, %esi
Ltmp109:
	callq	_trace_setLineNumberColumnForIHSTop
	leaq	376(%rsp), %rbx
	movq	%rbx, %rdi
	movl	$1, %esi
	movl	$2000039, %edx          ## imm = 0x1E84A7
	callq	_makeValueFrame
	leaq	488(%rsp), %rbp
	movq	%rbx, %rdi
	movq	%rbp, %rsi
	callq	_setParentOfActivationFrame
	movq	%rbx, %rdi
	xorl	%esi, %esi
	callq	_valueFrameReference
	movq	%rax, %rdi
	movl	$2, %esi
	movl	$1, %edx
	movq	%rbp, %rcx
	callq	_sp_lexicalValueRead
	callq	_singleStepCallback
	movq	_globalRunTimeValuesVector@GOTPCREL(%rip), %rdi
	movl	$4, %esi
	callq	_loadTimeSymbolReference
	leaq	392(%rsp), %rdi
Ltmp40:
	movq	%rax, %rsi
	movq	%rbx, %rdx
	callq	_sp_invokePossibleMultipleValueSymbolFunction
Ltmp41:
## BB#11:                               ## %(TRY-0).normal-dest24
	leaq	392(%rsp), %rdi
	callq	_isTrueTsp
	cmpl	$1, %eax
	jne	LBB1_36
## BB#12:                               ## %(TRY-0).then26
	movq	%r13, 48(%rsp)          ## 8-byte Spill
	leaq	488(%rsp), %rbx
Ltmp110:
	movq	%rbx, %rdi
	callq	_trace_setActivationFrameForIHSTop
	leaq	344(%rsp), %rbp
	movq	%rbp, %rdi
	callq	_trace_setActivationFrameForIHSTop
	movq	%rbp, %rdi
	movl	$2, %esi
	movl	$2000040, %edx          ## imm = 0x1E84A8
	callq	_makeValueFrame
	movq	%rbp, %rdi
	movq	%rbx, %rsi
	callq	_setParentOfActivationFrame
	movq	_globalRunTimeValuesVector@GOTPCREL(%rip), %rbx
	movq	%rbx, %rdi
	movl	$30, %esi
	callq	_loadTimeValueReference
	movq	%rbp, %rdi
	movq	%rax, %rsi
	callq	_attachDebuggingInfoToValueFrame
	xorl	%edi, %edi
	xorl	%esi, %esi
	movq	%rbp, %rdx
	callq	_lexicalValueReference
	movq	%rax, %rdi
	movl	$1, %esi
	xorl	%edx, %edx
	movq	%rbp, %rcx
	callq	_sp_lexicalValueRead
	xorl	%edi, %edi
	movl	$1, %esi
	movq	%rbp, %rdx
	callq	_lexicalValueReference
	movq	%rax, %rdi
	movq	%rbx, %rsi
	movq	%rbx, %r13
	movl	$31, %edx
	callq	_sp_copyLoadTimeValue
	movq	%rbp, %rdi
	callq	_trace_setActivationFrameForIHSTop
	callq	_singleStepCallback
	leaq	312(%rsp), %r15
	movq	%r15, %rdi
	callq	_makeTagbodyFrame
	movq	%r15, %rdi
	movq	%rbp, %rsi
	callq	_setParentOfActivationFrame
	leaq	248(%rsp), %rbx
	jmp	LBB1_13
LBB1_36:                                ## %(TRY-0).else76
	movl	$14, %edi
	movl	$9, %esi
Ltmp111:
	callq	_trace_setLineNumberColumnForIHSTop
	leaq	72(%rsp), %rbx
	movq	%rbx, %rdi
	movl	$1, %esi
	movl	$2000046, %edx          ## imm = 0x1E84AE
	callq	_makeValueFrame
	leaq	488(%rsp), %rbp
	movq	%rbx, %rdi
	movq	%rbp, %rsi
	callq	_setParentOfActivationFrame
	movq	%rbx, %rdi
	xorl	%esi, %esi
	callq	_valueFrameReference
	movq	%rax, %rdi
	movl	$2, %esi
	movl	$1, %edx
	movq	%rbp, %rcx
	callq	_sp_lexicalValueRead
	callq	_singleStepCallback
	movq	_globalRunTimeValuesVector@GOTPCREL(%rip), %rdi
	movl	$11, %esi
	callq	_loadTimeSymbolReference
	leaq	88(%rsp), %rdi
Ltmp42:
	movq	%rax, %rsi
	movq	%rbx, %rdx
	callq	_sp_invokePossibleMultipleValueSymbolFunction
Ltmp43:
## BB#37:                               ## %(TRY-0).normal-dest79
	leaq	88(%rsp), %rdi
	callq	_isTrueTsp
	cmpl	$1, %eax
	jne	LBB1_49
## BB#38:                               ## %(TRY-0).then81
	movl	$15, %edi
	movl	$9, %esi
Ltmp112:
	callq	_trace_setLineNumberColumnForIHSTop
	leaq	56(%rsp), %rbx
	movq	%rbx, %rdi
	movl	$2, %esi
	movl	$2000047, %edx          ## imm = 0x1E84AF
	callq	_makeValueFrame
	leaq	488(%rsp), %r14
	movq	%rbx, %rdi
	movq	%r14, %rsi
	callq	_setParentOfActivationFrame
	movq	%rbx, %rdi
	xorl	%esi, %esi
	callq	_valueFrameReference
	movq	_globalRunTimeValuesVector@GOTPCREL(%rip), %rbp
	movq	%rax, %rdi
	movq	%rbp, %rsi
	movl	$32, %edx
	callq	_sp_copyLoadTimeValue
	movq	%rbx, %rdi
	movl	$1, %esi
	callq	_valueFrameReference
	movq	%rax, %rdi
	movl	$2, %esi
	movl	$1, %edx
	movq	%r14, %rcx
	callq	_sp_lexicalValueRead
	callq	_singleStepCallback
	movq	%rbp, %rdi
	movl	$12, %esi
	callq	_loadTimeSymbolReference
Ltmp44:
	movq	%r13, %rdi
	movq	%rax, %rsi
	movq	%rbx, %rdx
	callq	_mv_invokePossibleMultipleValueSymbolFunction
Ltmp45:
	jmp	LBB1_43
LBB1_25:                                ## %(TRY-0).handler-block22136
                                        ##   in Loop: Header=BB1_13 Depth=1
Ltmp113:
Ltmp114:
	movq	%r14, %rdi
	callq	___cxa_begin_catch
Ltmp49:
	movq	%r15, %rdi
	movq	%rax, %rsi
	callq	_tagbodyDynamicGoIndexElseRethrow
Ltmp50:
## BB#26:                               ## %(TRY-0).normal-dest58
                                        ##   in Loop: Header=BB1_13 Depth=1
	cmpl	$1, %eax
	je	LBB1_14
## BB#27:                               ## %(TRY-0).normal-dest58
                                        ##   in Loop: Header=BB1_13 Depth=1
	cmpl	$2, %eax
	jne	LBB1_28
LBB1_18:                                ## %(TRY-0).tagbody-#:G2285-2
                                        ##   in Loop: Header=BB1_13 Depth=1
	leaq	136(%rsp), %rbp
	movq	%rbp, %rdi
	movl	$2, %esi
	movl	$2000044, %edx          ## imm = 0x1E84AC
	callq	_makeValueFrame
	movq	%rbp, %rdi
	movq	%r15, %rsi
	callq	_setParentOfActivationFrame
	movq	%rbp, %rdi
	xorl	%esi, %esi
	callq	_valueFrameReference
	movq	%rax, %rdi
	movl	$1, %esi
	movl	$1, %edx
	movq	%r15, %rcx
	callq	_sp_lexicalValueRead
	movq	%rbp, %rdi
	movl	$1, %esi
	callq	_valueFrameReference
	movq	%rax, %rdi
	movl	$1, %esi
	xorl	%edx, %edx
	movq	%r15, %rcx
	callq	_sp_lexicalValueRead
	callq	_singleStepCallback
	movq	%r13, %rdi
	movl	$9, %esi
	callq	_loadTimeSymbolReference
Ltmp58:
	leaq	152(%rsp), %rdi
	movq	%rax, %rsi
	movq	%rbp, %rdx
	callq	_sp_invokePossibleMultipleValueSymbolFunction
Ltmp59:
## BB#19:                               ## %(TRY-0).normal-dest50
                                        ##   in Loop: Header=BB1_13 Depth=1
	leaq	152(%rsp), %rdi
	callq	_isTrueTsp
	cmpl	$1, %eax
	jne	LBB1_21
## BB#20:                               ## %(TRY-0).then52
                                        ##   in Loop: Header=BB1_13 Depth=1
Ltmp62:
	xorl	%edi, %edi
	movl	$1, %esi
	movq	%r15, %rdx
	callq	_throw_DynamicGo
Ltmp63:
	jmp	LBB1_21
LBB1_28:                                ## %(TRY-0).normal-dest58
                                        ##   in Loop: Header=BB1_13 Depth=1
	testl	%eax, %eax
	je	LBB1_13
	jmp	LBB1_29
LBB1_14:                                ## %(TRY-0).tagbody-#:G2284-1
                                        ##   in Loop: Header=BB1_13 Depth=1
Ltmp115:
	movq	%rbx, %rdi
	movl	$1, %esi
	movl	$2000041, %edx          ## imm = 0x1E84A9
	callq	_makeValueFrame
	movq	%rbx, %rdi
	movq	%r15, %rsi
	callq	_setParentOfActivationFrame
	movq	%rbx, %rdi
	xorl	%esi, %esi
	callq	_valueFrameReference
	movq	%rax, %r14
	movq	%r13, %rbp
	movq	%rbp, %rdi
	movl	$5, %esi
	callq	_loadTimeSymbolReference
	movq	%r14, %rdi
	movq	%rax, %rsi
	callq	_sp_symbolValueRead
	callq	_singleStepCallback
	movq	%rbp, %rdi
	movq	%rbp, %r13
	movl	$6, %esi
	callq	_loadTimeSymbolReference
Ltmp52:
	leaq	264(%rsp), %rdi
	movq	%rax, %rsi
	movq	%rbx, %rdx
	callq	_sp_invokePossibleMultipleValueSymbolFunction
Ltmp53:
## BB#15:                               ## %(TRY-0).normal-dest38
                                        ##   in Loop: Header=BB1_13 Depth=1
	leaq	264(%rsp), %rdi
	callq	_isTrueTsp
	leaq	280(%rsp), %rdi
	movq	%r13, %r12
	movq	%r12, %rsi
	xorl	%edx, %edx
	callq	_sp_copyLoadTimeValue
	movl	$4, %edi
	movl	$1, %esi
Ltmp116:
	movq	%r15, %rdx
	callq	_lexicalValueReference
	movq	%rax, %r14
	movl	$11, %edi
	movl	$14, %esi
Ltmp117:
	callq	_trace_setLineNumberColumnForIHSTop
	leaq	216(%rsp), %rbp
	movq	%rbp, %rdi
	movl	$1, %esi
	movl	$2000042, %edx          ## imm = 0x1E84AA
	callq	_makeValueFrame
	movq	%rbp, %rdi
	movq	%r15, %rsi
	callq	_setParentOfActivationFrame
	movq	%rbp, %rdi
	xorl	%esi, %esi
	callq	_valueFrameReference
	movq	%rax, %rdi
	movl	$4, %esi
	movl	$1, %edx
	movq	%r15, %rcx
	callq	_sp_lexicalValueRead
	callq	_singleStepCallback
	movq	%r12, %rdi
	movq	%r12, %r13
	movl	$7, %esi
	callq	_loadTimeSymbolReference
Ltmp54:
	leaq	232(%rsp), %rdi
	movq	%rax, %rsi
	movq	%rbp, %rdx
	callq	_sp_invokePossibleMultipleValueSymbolFunction
Ltmp55:
## BB#16:                               ## %(TRY-0).normal-dest43
                                        ##   in Loop: Header=BB1_13 Depth=1
	movq	%r14, %rdi
	leaq	232(%rsp), %rbp
	movq	%rbp, %rsi
	callq	_sp_copyTsp
	leaq	280(%rsp), %rdi
	movq	%rbp, %rsi
	callq	_sp_copyTsp
	movl	$1, %edi
	movl	$1, %esi
	movq	%r15, %rdx
	callq	_lexicalValueReference
	movq	%rax, %r14
	leaq	184(%rsp), %rbp
	movq	%rbp, %rdi
	movl	$1, %esi
	movl	$2000043, %edx          ## imm = 0x1E84AB
	callq	_makeValueFrame
	movq	%rbp, %rdi
	movq	%r15, %rsi
	callq	_setParentOfActivationFrame
	movq	%rbp, %rdi
	xorl	%esi, %esi
	callq	_valueFrameReference
	movq	%rax, %rdi
	movl	$1, %esi
	movl	$1, %edx
	movq	%r15, %rcx
	callq	_sp_lexicalValueRead
	callq	_singleStepCallback
	movq	%r13, %rdi
	movl	$8, %esi
	callq	_loadTimeSymbolReference
Ltmp56:
	leaq	200(%rsp), %rdi
	movq	%rax, %rsi
	movq	%rbp, %rdx
	callq	_sp_invokePossibleMultipleValueSymbolFunction
Ltmp57:
## BB#17:                               ## %(TRY-0).normal-dest46
                                        ##   in Loop: Header=BB1_13 Depth=1
	movq	%r14, %rdi
	leaq	200(%rsp), %rbp
	movq	%rbp, %rsi
	callq	_sp_copyTsp
	leaq	328(%rsp), %rdi
	movq	%rbp, %rsi
	callq	_sp_copyTsp
	jmp	LBB1_18
Ltmp118:
LBB1_22:                                ## %(TRY-0).landing-pad.split-lp
                                        ##   in Loop: Header=BB1_13 Depth=1
Ltmp64:
	jmp	LBB1_23
LBB1_13:                                ## %(TRY-0).tagbody-#:G2286-0
                                        ## =>This Inner Loop Header: Depth=1
Ltmp46:
Ltmp119:
	xorl	%edi, %edi
	movl	$2, %esi
	movq	%r15, %rdx
	callq	_throw_DynamicGo
Ltmp47:
	jmp	LBB1_14
LBB1_48:                                ## %(TRY-0).landing-pad.preheader
                                        ##   in Loop: Header=BB1_13 Depth=1
Ltmp48:
LBB1_23:                                ## %(TRY-0).landing-pad
                                        ##   in Loop: Header=BB1_13 Depth=1
	movq	%rdx, %r12
	movq	%rax, %r14
Ltmp120:
Ltmp121:
	movq	%r14, 592(%rsp)
	movl	%r12d, 588(%rsp)
	leaq	328(%rsp), %rdi
	movq	%r13, %rsi
	xorl	%edx, %edx
	callq	_sp_copyLoadTimeValue
	cmpl	$2, %r12d
	je	LBB1_25
Ltmp122:
## BB#24:
	movq	48(%rsp), %r13          ## 8-byte Reload
	jmp	LBB1_33
LBB1_49:                                ## %(TRY-0).else84
Ltmp123:
	movq	_globalRunTimeValuesVector@GOTPCREL(%rip), %rsi
	movq	%r13, %rdi
	xorl	%edx, %edx
	callq	_mv_copyLoadTimeValue
LBB1_43:                                ## %(TRY-0).try-cont106
	leaq	56(%rsp), %rdi
	callq	_destructAFsp
	leaq	72(%rsp), %rdi
	callq	_destructAFsp
	leaq	88(%rsp), %rdi
	callq	_destructTsp
	leaq	104(%rsp), %rdi
	callq	_destructAFsp
	leaq	120(%rsp), %rdi
	callq	_destructTsp
	leaq	136(%rsp), %rdi
	callq	_destructAFsp
	leaq	152(%rsp), %rdi
	callq	_destructTsp
	leaq	168(%rsp), %rdi
	callq	_destructTsp
	leaq	184(%rsp), %rdi
	callq	_destructAFsp
	leaq	200(%rsp), %rdi
	callq	_destructTsp
	leaq	216(%rsp), %rdi
	callq	_destructAFsp
	leaq	232(%rsp), %rdi
	callq	_destructTsp
	leaq	248(%rsp), %rdi
	callq	_destructAFsp
	leaq	264(%rsp), %rdi
	callq	_destructTsp
	leaq	280(%rsp), %rdi
	callq	_destructTsp
	leaq	296(%rsp), %rdi
	callq	_destructTsp
	leaq	312(%rsp), %rdi
	callq	_destructAFsp
	leaq	328(%rsp), %rdi
	callq	_destructTsp
	leaq	344(%rsp), %rdi
	callq	_destructAFsp
	leaq	360(%rsp), %rdi
	callq	_destructTsp
	leaq	376(%rsp), %rdi
	callq	_destructAFsp
	leaq	392(%rsp), %rdi
	callq	_destructTsp
	leaq	408(%rsp), %rdi
	callq	_destructAFsp
	leaq	424(%rsp), %rdi
	callq	_destructAFsp
	leaq	440(%rsp), %rdi
	callq	_destructTsp
	leaq	456(%rsp), %rdi
	callq	_destructTsp
	leaq	472(%rsp), %rdi
	callq	_destructAFsp
	leaq	488(%rsp), %rdi
	callq	_destructAFsp
	leaq	504(%rsp), %rdi
	callq	_destructTsp
	leaq	520(%rsp), %rdi
	callq	_destructTsp
	leaq	536(%rsp), %rdi
	callq	_destructAFsp
	leaq	552(%rsp), %rdi
	callq	_destructTsp
	leaq	568(%rsp), %rdi
	callq	_destructAFsp
	addq	$600, %rsp              ## imm = 0x258
	popq	%rbx
	popq	%r12
	popq	%r13
	popq	%r14
	popq	%r15
	popq	%rbp
	ret
LBB1_29:                                ## %(TRY-0).switch-default
Ltmp124:
Ltmp65:
Ltmp125:
	movl	%eax, %edi
	movl	$3, %esi
	movq	48(%rsp), %r13          ## 8-byte Reload
	callq	_throwIllegalSwitchValue
Ltmp66:
LBB1_31:                                ## %(TRY-0).landing-pad65.nonloopexit
Ltmp67:
	movq	%rdx, %r12
	movq	%rax, %r14
	jmp	LBB1_32
LBB1_30:                                ## %(TRY-0).landing-pad65.loopexit
Ltmp51:
	movq	%rdx, %r12
	movq	%rax, %r14
	movq	48(%rsp), %r13          ## 8-byte Reload
LBB1_32:                                ## %(TRY-0).landing-pad65
Ltmp126:
	movq	%r14, 592(%rsp)
	movl	%r12d, 588(%rsp)
LBB1_33:                                ## %(TRY-0).dispatch-header70
	cmpl	$1, %r12d
	jne	LBB1_40
## BB#34:                               ## %(TRY-0).handler-block24051
	movq	%r14, %rdi
	callq	___cxa_begin_catch
Ltmp68:
	movq	%r13, %rdi
	movq	%rax, %rsi
	callq	_mv_blockHandleReturnFrom
Ltmp69:
## BB#35:                               ## %(TRY-0).normal-dest73
Ltmp70:
	callq	___cxa_end_catch
Ltmp71:
	jmp	LBB1_43
Ltmp127:
LBB1_39:                                ## %(TRY-0).landing-pad89
Ltmp74:
	movq	%rdx, %r12
	movq	%rax, %r14
Ltmp128:
	movq	%r14, 592(%rsp)
	movl	%r12d, 588(%rsp)
LBB1_40:                                ## %(TRY-0).dispatch-header99
	cmpl	$1, %r12d
	jne	LBB1_47
## BB#41:                               ## %(TRY-0).handler-block24051102
	movq	%r14, %rdi
	callq	___cxa_begin_catch
Ltmp75:
	movq	%r13, %rdi
	movq	%rax, %rsi
	callq	_mv_blockHandleReturnFrom
Ltmp76:
## BB#42:                               ## %(TRY-0).normal-dest104
Ltmp77:
	callq	___cxa_end_catch
Ltmp78:
	jmp	LBB1_43
LBB1_44:                                ## %(TRY-0).landing-pad108
Ltmp79:
	jmp	LBB1_46
LBB1_1:                                 ## %(TRY-0).error
	cmpl	$1, %eax
	jg	LBB1_3
## BB#2:                                ## %(TRY-0).error1
Ltmp33:
	leaq	"_:::global-str-MATCH-DIMENSIONS"(%rip), %rcx
	movq	%rcx, %rdi
	movq	%rbx, %rsi
	movl	%eax, %edx
	movl	$2, %ecx
	callq	_throwNotEnoughArgumentsException
Ltmp34:
LBB1_3:                                 ## %(TRY-0).continue
Ltmp31:
	leaq	"_:::global-str-MATCH-DIMENSIONS"(%rip), %rcx
	movq	%rcx, %rdi
	movq	%rbx, %rsi
	movl	%eax, %edx
	movl	$2, %ecx
	callq	_throwTooManyArgumentsException
Ltmp32:
	jmp	LBB1_4
LBB1_45:                                ## %(TRY-0).func-cleanup-landing-pad
Ltmp35:
LBB1_46:                                ## %(TRY-0).func-ehcleanup
	movq	%rdx, %rcx
	movq	%rax, %r14
	movq	%r14, 592(%rsp)
	movl	%ecx, 588(%rsp)
LBB1_47:                                ## %(TRY-0).func-ehcleanup
	leaq	56(%rsp), %rax
	movq	%rax, %rdi
	callq	_destructAFsp
	leaq	72(%rsp), %rax
	movq	%rax, %rdi
	callq	_destructAFsp
	leaq	88(%rsp), %rax
	movq	%rax, %rdi
	callq	_destructTsp
	leaq	104(%rsp), %rax
	movq	%rax, %rdi
	callq	_destructAFsp
	leaq	120(%rsp), %rax
	movq	%rax, %rdi
	callq	_destructTsp
	leaq	136(%rsp), %rax
	movq	%rax, %rdi
	callq	_destructAFsp
	leaq	152(%rsp), %rax
	movq	%rax, %rdi
	callq	_destructTsp
	leaq	168(%rsp), %rax
	movq	%rax, %rdi
	callq	_destructTsp
	leaq	184(%rsp), %rax
	movq	%rax, %rdi
	callq	_destructAFsp
	leaq	200(%rsp), %rax
	movq	%rax, %rdi
	callq	_destructTsp
	leaq	216(%rsp), %rax
	movq	%rax, %rdi
	callq	_destructAFsp
	leaq	232(%rsp), %rax
	movq	%rax, %rdi
	callq	_destructTsp
	leaq	248(%rsp), %rax
	movq	%rax, %rdi
	callq	_destructAFsp
	leaq	264(%rsp), %rax
	movq	%rax, %rdi
	callq	_destructTsp
	leaq	280(%rsp), %rax
	movq	%rax, %rdi
	callq	_destructTsp
	leaq	296(%rsp), %rax
	movq	%rax, %rdi
	callq	_destructTsp
	leaq	312(%rsp), %rax
	movq	%rax, %rdi
	callq	_destructAFsp
	leaq	328(%rsp), %rax
	movq	%rax, %rdi
	callq	_destructTsp
	leaq	344(%rsp), %rax
	movq	%rax, %rdi
	callq	_destructAFsp
	leaq	360(%rsp), %rax
	movq	%rax, %rdi
	callq	_destructTsp
	leaq	376(%rsp), %rax
	movq	%rax, %rdi
	callq	_destructAFsp
	leaq	392(%rsp), %rax
	movq	%rax, %rdi
	callq	_destructTsp
	leaq	408(%rsp), %rax
	movq	%rax, %rdi
	callq	_destructAFsp
	leaq	424(%rsp), %rax
	movq	%rax, %rdi
	callq	_destructAFsp
	leaq	440(%rsp), %rax
	movq	%rax, %rdi
	callq	_destructTsp
	leaq	456(%rsp), %rax
	movq	%rax, %rdi
	callq	_destructTsp
	leaq	472(%rsp), %rax
	movq	%rax, %rdi
	callq	_destructAFsp
	leaq	488(%rsp), %rax
	movq	%rax, %rdi
	callq	_destructAFsp
	leaq	504(%rsp), %rax
	movq	%rax, %rdi
	callq	_destructTsp
	leaq	520(%rsp), %rax
	movq	%rax, %rdi
	callq	_destructTsp
	leaq	536(%rsp), %rax
	movq	%rax, %rdi
	callq	_destructAFsp
	leaq	552(%rsp), %rax
	movq	%rax, %rdi
	callq	_destructTsp
	leaq	568(%rsp), %rax
	movq	%rax, %rdi
	callq	_destructAFsp
	movl	$90, %edi
	callq	_debugPrintI32
	movl	$91, %edi
	callq	_debugPrintI32
	movq	%r14, %rdi
	callq	__Unwind_Resume
LBB1_21:                                ## %(TRY-0).else56
	leaq	328(%rsp), %rbx
Ltmp129:
Ltmp130:
	movq	_globalRunTimeValuesVector@GOTPCREL(%rip), %r14
	movq	%rbx, %rdi
	movq	%r14, %rsi
	xorl	%edx, %edx
	callq	_sp_copyLoadTimeValue
	movq	%rbx, %rdi
	movq	%r14, %rsi
	xorl	%edx, %edx
	callq	_sp_copyLoadTimeValue
	movl	$7, %edi
	movl	$26, %esi
Ltmp131:
	callq	_trace_setLineNumberColumnForIHSTop
	leaq	104(%rsp), %rbx
	movq	%rbx, %rdi
	movl	$1, %esi
	movl	$2000045, %edx          ## imm = 0x1E84AD
	callq	_makeValueFrame
	leaq	344(%rsp), %rbp
	movq	%rbx, %rdi
	movq	%rbp, %rsi
	callq	_setParentOfActivationFrame
	movq	%rbx, %rdi
	xorl	%esi, %esi
	callq	_valueFrameReference
	movq	%rax, %rdi
	movl	$3, %esi
	movl	$1, %edx
	movq	%rbp, %rcx
	callq	_sp_lexicalValueRead
	callq	_singleStepCallback
	movq	%r14, %rdi
	movl	$10, %esi
	callq	_loadTimeSymbolReference
Ltmp60:
	movq	48(%rsp), %r13          ## 8-byte Reload
	movq	%r13, %rdi
	movq	%rax, %rsi
	movq	%rbx, %rdx
	callq	_mv_invokePossibleMultipleValueSymbolFunction
Ltmp61:
	jmp	LBB1_43
Ltmp132:
Lfunc_end1:
	.cfi_endproc
Leh_func_end1:
	.section	__TEXT,__gcc_except_tab
	.align	2
GCC_except_table1:
Lexception1:
	.byte	255                     ## @LPStart Encoding = omit
	.byte	155                     ## @TType Encoding = indirect pcrel sdata4
	.asciz	"\223\201"              ## @TType base offset
	.byte	3                       ## Call site Encoding = udata4
	.ascii	"\202\001"              ## Call site table length
Lset8 = Ltmp36-Leh_func_begin1          ## >> Call Site 1 <<
	.long	Lset8
Lset9 = Ltmp45-Ltmp36                   ##   Call between Ltmp36 and Ltmp45
	.long	Lset9
Lset10 = Ltmp74-Leh_func_begin1         ##     jumps to Ltmp74
	.long	Lset10
	.byte	3                       ##   On action: 2
Lset11 = Ltmp49-Leh_func_begin1         ## >> Call Site 2 <<
	.long	Lset11
Lset12 = Ltmp50-Ltmp49                  ##   Call between Ltmp49 and Ltmp50
	.long	Lset12
Lset13 = Ltmp51-Leh_func_begin1         ##     jumps to Ltmp51
	.long	Lset13
	.byte	3                       ##   On action: 2
Lset14 = Ltmp58-Leh_func_begin1         ## >> Call Site 3 <<
	.long	Lset14
Lset15 = Ltmp57-Ltmp58                  ##   Call between Ltmp58 and Ltmp57
	.long	Lset15
Lset16 = Ltmp64-Leh_func_begin1         ##     jumps to Ltmp64
	.long	Lset16
	.byte	5                       ##   On action: 3
Lset17 = Ltmp46-Leh_func_begin1         ## >> Call Site 4 <<
	.long	Lset17
Lset18 = Ltmp47-Ltmp46                  ##   Call between Ltmp46 and Ltmp47
	.long	Lset18
Lset19 = Ltmp48-Leh_func_begin1         ##     jumps to Ltmp48
	.long	Lset19
	.byte	5                       ##   On action: 3
Lset20 = Ltmp65-Leh_func_begin1         ## >> Call Site 5 <<
	.long	Lset20
Lset21 = Ltmp66-Ltmp65                  ##   Call between Ltmp65 and Ltmp66
	.long	Lset21
Lset22 = Ltmp67-Leh_func_begin1         ##     jumps to Ltmp67
	.long	Lset22
	.byte	3                       ##   On action: 2
Lset23 = Ltmp68-Leh_func_begin1         ## >> Call Site 6 <<
	.long	Lset23
Lset24 = Ltmp71-Ltmp68                  ##   Call between Ltmp68 and Ltmp71
	.long	Lset24
Lset25 = Ltmp74-Leh_func_begin1         ##     jumps to Ltmp74
	.long	Lset25
	.byte	3                       ##   On action: 2
Lset26 = Ltmp75-Leh_func_begin1         ## >> Call Site 7 <<
	.long	Lset26
Lset27 = Ltmp78-Ltmp75                  ##   Call between Ltmp75 and Ltmp78
	.long	Lset27
Lset28 = Ltmp79-Leh_func_begin1         ##     jumps to Ltmp79
	.long	Lset28
	.byte	0                       ##   On action: cleanup
Lset29 = Ltmp33-Leh_func_begin1         ## >> Call Site 8 <<
	.long	Lset29
Lset30 = Ltmp32-Ltmp33                  ##   Call between Ltmp33 and Ltmp32
	.long	Lset30
Lset31 = Ltmp35-Leh_func_begin1         ##     jumps to Ltmp35
	.long	Lset31
	.byte	0                       ##   On action: cleanup
Lset32 = Ltmp32-Leh_func_begin1         ## >> Call Site 9 <<
	.long	Lset32
Lset33 = Ltmp60-Ltmp32                  ##   Call between Ltmp32 and Ltmp60
	.long	Lset33
	.long	0                       ##     has no landing pad
	.byte	0                       ##   On action: cleanup
Lset34 = Ltmp60-Leh_func_begin1         ## >> Call Site 10 <<
	.long	Lset34
Lset35 = Ltmp61-Ltmp60                  ##   Call between Ltmp60 and Ltmp61
	.long	Lset35
Lset36 = Ltmp67-Leh_func_begin1         ##     jumps to Ltmp67
	.long	Lset36
	.byte	3                       ##   On action: 2
	.byte	0                       ## >> Action Record 1 <<
                                        ##   Cleanup
	.byte	0                       ##   No further actions
	.byte	1                       ## >> Action Record 2 <<
                                        ##   Catch TypeInfo 1
	.byte	125                     ##   Continue to action 1
	.byte	2                       ## >> Action Record 3 <<
                                        ##   Catch TypeInfo 2
	.byte	125                     ##   Continue to action 2
                                        ## >> Catch TypeInfos <<
	.long	__ZTIN4core9DynamicGoE@GOTPCREL+4 ## TypeInfo 2
	.long	__ZTIN4core10ReturnFromE@GOTPCREL+4 ## TypeInfo 1
	.align	2

	.section	__TEXT,__cstring,cstring_literals
	.align	4                       ## @":::global-str-/Users/meister/DEVELOPMENT/CANDO/BRCL/SRC/LISP/KERNEL/LSP/test_matchdim.lsp"
"_:::global-str-/Users/meister/DEVELOPMENT/CANDO/BRCL/SRC/LISP/KERNEL/LSP/test_matchdim.lsp":
	.asciz	"/Users/meister/DEVELOPMENT/CANDO/BRCL/SRC/LISP/KERNEL/LSP/test_matchdim.lsp"

"_:::global-str-lambda":                ## @":::global-str-lambda"
	.asciz	"lambda"

	.align	4                       ## @":::global-str-MATCH-DIMENSIONS"
"_:::global-str-MATCH-DIMENSIONS":
	.asciz	"MATCH-DIMENSIONS"

	.section	__TEXT,__eh_frame,coalesced,no_toc+strip_static_syms+live_support
	.section	__TEXT,__text,regular,pure_instructions
Ldebug_end0:
	.section	__TEXT,__text,regular,pure_instructions
Ltmp137: