_ZN4core35core__reader_list_allow_consing_dotEN7gctools9smart_ptrINS_3T_OEEENS1_INS_11Character_IEEE
_ZN5cando37core__leap_command_line_ignore_leaprcEv
_ZN5cando32core__leap_command_line_includesEv
_ZN5cando31core__leap_command_line_scriptsEv
_ZN10kinematics18kin__dumpMonomerIdERKNS_9MonomerIdE
_ZN4chem45chem__generic_octree_get_points_within_cutoffEN7gctools9smart_ptrINS_15GenericOctree_OEEEdNS1_IN4core3T_OEEERK7Vector3NS1_INS4_15ComplexVector_OEEES6_bS6_b
_ZN4chem32chem__oct_tree_find_closest_atomEN7gctools9smart_ptrINS_14AddIonOctree_OEEERK7Vector3
_ZN4chem21chem__overlap_solventEN7gctools9smart_ptrIN4core21SimpleVector_double_OEEES4_S4_NS1_INS_10Molecule_OEEEd
_ZN4chem14chem__oligomerEN7gctools9smart_ptrIN4core6List_VEEE
_ZN4chem21chem__calculate_pointEv
_ZN4chem10chem__linkEN7gctools9smart_ptrIN4core8Symbol_OEEES4_NS1_INS_22OligomerPart_Monomer_OEEE
_ZN4chem13chem__monomerEN7gctools9smart_ptrIN4core8Symbol_OEEES4_NS1_INS2_6List_VEEENS1_INS2_7Array_OEEE
_ZN4chem14chem__atom_posEN7gctools9smart_ptrIN4core6List_VEEE
_ZN4chem18chem__find_residueEN7gctools9smart_ptrIN4core6List_VEEE
_ZN4chem27chem__matter_as_mol2_stringEN7gctools9smart_ptrINS_8Matter_OEEEb
_ZN4chem30chem__aggregate_as_mol2_stringEN7gctools9smart_ptrINS_11Aggregate_OEEEb
_ZN4chem15chem__save_mol2EN7gctools9smart_ptrINS_8Matter_OEEENS1_IN4core3T_OEEEb
_ZN4chem20chem__load_mol2_listEN7gctools9smart_ptrIN4core3T_OEEES4_
_ZN4chem20chem__read_mol2_listEN7gctools9smart_ptrIN4core3T_OEEES4_
_ZN4chem15chem__load_mol2EN7gctools9smart_ptrIN4core3T_OEEE
_ZN4chem15chem__read_mol2EN7gctools9smart_ptrIN4core3T_OEEE
_ZN4chem50chem__make_simple_vector_coordinate_from_atom_listEN7gctools9smart_ptrIN4core6List_VEEE
_ZN4chem47chem__save_archive_with_auto_set_cando_databaseEv
_ZN4chem25chem__create_virtual_atomEv
_ZN4chem26chem__bundle_database_pathEN7gctools9smart_ptrIN4core3T_OEEE
_ZN4chem23chem__standard_databaseEN7gctools9smart_ptrIN4core3T_OEEES4_NS1_INS2_8Fixnum_IEEE
_ZN4chem14chem__databaseEN7gctools9smart_ptrIN4core3T_OEEENS1_INS2_8Fixnum_IEEE
_ZN4chem29chem__initialize_smarts_usersEv
_ZN4chem10ChemDraw_O4makeEN7gctools9smart_ptrIN4core3T_OEEEbb
_ZN4chem43chem__calculateStereochemistryFromStructureEN7gctools9smart_ptrINS_8Matter_OEEEb
_ZN4chem16CipPrioritizer_O25assignPrioritiesHashTableEN7gctools9smart_ptrINS_8Matter_OEEE
_ZN4chem32chem__make_read_amber_parametersEv
_ZN4chem25chem__make_twister_driverEN7gctools9smart_ptrINS_11Aggregate_OEEE
_ZN4chem18chem__make_twisterEv
_ZN4chem22chem__set_monomer_packEN7gctools9smart_ptrIN4core8Symbol_OEEENS1_INS2_6List_VEEENS1_INS2_6Cons_OEEE
_ZN4chem20chem__extend_aliasesEN7gctools9smart_ptrIN4core8Symbol_OEEENS1_INS2_6List_VEEENS1_INS2_6Cons_OEEE
_ZN4chem25chem__define_monomer_packEN7gctools9smart_ptrIN4core8Symbol_OEEENS1_INS2_6List_VEEENS1_INS2_6Cons_OEEE
_ZN4chem27chem__parseChimeraAtomSpecsERKNSt3__112basic_stringIcNS0_11char_traitsIcEENS0_9allocatorIcEEEE
_ZN4chem11chem__aliasEN7gctools9smart_ptrIN4core8Symbol_OEEES4_
_ZN4chem14IterateBonds_O4makeEN7gctools9smart_ptrINS_8Matter_OEEE
_ZN4chem17IterateResidues_O15createForMatterEN7gctools9smart_ptrINS_8Matter_OEEE
_ZN4chem23chem__create_for_matterEN7gctools9smart_ptrINS_8Matter_OEEE
_ZN4chem12RingFinder_O9ringBondsEN7gctools9smart_ptrIN4core6List_VEEE
_ZN4chem11PdbWriter_O7savePdbEN7gctools9smart_ptrINS_8Matter_OEEENS2_IN4core3T_OEEE
_ZN4chem26chem__load_pdb_from_streamEN7gctools9smart_ptrIN4core3T_OEEE
_ZN4chem21chem__simple_load_pdbEN7gctools9smart_ptrIN4core7Array_OEEE
_ZN4chem22chem__moeReadAggregateERKNSt3__112basic_stringIcNS0_11char_traitsIcEENS0_9allocatorIcEEEE
_ZN4chem19chem__superpose_oneEN7gctools9smart_ptrINS_8Matter_OEEENS1_IN4core6List_VEEES6_
_ZN4chem14SpanningLoop_O4makeEN7gctools9smart_ptrINS_6Atom_OEEE
_ZN4chem23chem__oligomer_sequenceEN7gctools9smart_ptrINS_10Oligomer_OEEE
_ZN4chem29chem__nvector_bounding_cuboidEN7gctools9smart_ptrIN4core21SimpleVector_double_OEEENS1_INS2_3T_OEEE
_ZN4chem40chem__find_close_contact_in_bounding_boxEN7gctools9smart_ptrIN4core21SimpleVector_double_OEEEmS4_mNS1_INS_13BoundingBox_OEEEd
_ZN4chem24chem__find_close_contactEN7gctools9smart_ptrIN4core21SimpleVector_double_OEEES4_
_ZN4chem36chem__apply_transform_to_coordinatesEN7gctools9smart_ptrIN4core21SimpleVector_double_OEEES4_RK6Matrix
_ZN4chem18chem__copy_nvectorEN7gctools9smart_ptrIN4core21SimpleVector_double_OEEE
_ZN4chem18chem__make_nvectorEm
_ZN4chem30chem__atomsInMatterAsObjectSetEN7gctools9smart_ptrINS_8Matter_OEEE
_ZN4chem34chem__atomsWithinSphereAsObjectSetEN7gctools9smart_ptrINS_8Matter_OEEE7Vector3d
_ZN4chem43chem__connectAtomsInMatterInCovalentContactEN7gctools9smart_ptrINS_8Matter_OEEE
_ZN4chem21DirectionalCoupling_O13otherPlugNameEN7gctools9smart_ptrIN4core8Symbol_OEEE
_ZN4chem21chem__is_in_plug_nameEN7gctools9smart_ptrIN4core8Symbol_OEEE
_ZN4chem21DirectionalCoupling_O11outPlugNameEN7gctools9smart_ptrIN4core8Symbol_OEEE
_ZN4chem21DirectionalCoupling_O28outPlugNameMatchesInPlugNameEN7gctools9smart_ptrIN4core8Symbol_OEEES5_
_ZN4chem21DirectionalCoupling_O10inPlugNameEN7gctools9smart_ptrIN4core8Symbol_OEEE
_ZN4chem21DirectionalCoupling_O12couplingNameEN7gctools9smart_ptrIN4core8Symbol_OEEE
_ZN4chem21DirectionalCoupling_O14isCouplingNameEN7gctools9smart_ptrIN4core8Symbol_OEEE
_ZN4chem56chem__rigid_body_velocity_verlet_step_limit_displacementEN7gctools9smart_ptrINS_17ScoringFunction_OEEENS1_IN4core21SimpleVector_double_OEEES6_S6_S6_S6_dNS1_INS4_3T_OEEES6_S6_
_ZN4chem25RigidBodyEnergyFunction_O4makeEmN7gctools9smart_ptrINS_13BoundingBox_OEEE
_ZN4chem41chem__SketchFunction_velocity_verlet_stepEN7gctools9smart_ptrINS_16SketchFunction_OEEENS1_IN4core21SimpleVector_double_OEEES6_S6_S6_S6_dNS1_INS4_3T_OEEE
_ZN4chem37chem__fill_energy_function_from_alistEN7gctools9smart_ptrINS_16EnergyFunction_OEEENS1_IN4core6List_VEEE
_ZN4chem40chem__energy_function_empty_force_vectorEN7gctools9smart_ptrINS_16EnergyFunction_OEEE
_ZN4chem39chem__energy_function_coordinate_vectorEN7gctools9smart_ptrINS_16EnergyFunction_OEEE
_ZN4chem20chem__all_componentsEN7gctools9smart_ptrINS_17ScoringFunction_OEEE
_ZN4chem45chem__velocity_verlet_step_limit_displacementEN7gctools9smart_ptrINS_17ScoringFunction_OEEENS1_IN4core21SimpleVector_double_OEEES6_S6_S6_S6_dNS1_INS4_3T_OEEERK7Vector3
_ZN4chem26chem__velocity_verlet_stepEN7gctools9smart_ptrINS_17ScoringFunction_OEEENS1_IN4core21SimpleVector_double_OEEES6_S6_S6_S6_dNS1_INS4_3T_OEEE
_ZN4chem21chem__atoms_at_removeEN7gctools9smart_ptrINS_11AtomTable_OEEEmm
_ZN4chem44chem__energy_component_evaluate_energy_forceEN7gctools9smart_ptrINS_16EnergyFunction_OEEENS1_INS_17EnergyComponent_OEEENS1_IN4core21SimpleVector_double_OEEES8_
_ZN4chem38chem__energy_component_evaluate_energyEN7gctools9smart_ptrINS_16EnergyFunction_OEEENS1_INS_17EnergyComponent_OEEENS1_IN4core21SimpleVector_double_OEEE
_ZN4chem32chem__find_maximum_clique_searchEN7gctools9smart_ptrINS_8Dimacs_OEEEii
_ZN4chem19chem__map_impropersEN7gctools9smart_ptrIN4core8Symbol_OEEENS1_INS2_3T_OEEENS1_INS_8Matter_OEEE
_ZN4chem19chem__map_dihedralsEN7gctools9smart_ptrIN4core8Symbol_OEEENS1_INS2_3T_OEEENS1_INS_8Matter_OEEE
_ZN4chem16chem__map_anglesEN7gctools9smart_ptrIN4core8Symbol_OEEENS1_INS2_3T_OEEENS1_INS_8Matter_OEEE
_ZN4chem15chem__map_bondsEN7gctools9smart_ptrIN4core8Symbol_OEEENS1_INS2_3T_OEEENS1_INS_8Matter_OEEE
_ZN4chem15chem__map_atomsEN7gctools9smart_ptrIN4core8Symbol_OEEENS1_INS2_3T_OEEENS1_INS_8Matter_OEEE
_ZN4chem18chem__map_residuesEN7gctools9smart_ptrIN4core8Symbol_OEEENS1_INS2_3T_OEEENS1_INS_8Matter_OEEE
_ZN4chem19chem__map_moleculesEN7gctools9smart_ptrIN4core8Symbol_OEEENS1_INS2_3T_OEEENS1_INS_8Matter_OEEE
_ZN4chem29chem__make_stereoisomer_atomsEN7gctools9smart_ptrIN4core8Symbol_OEEENS1_INS_19ConstitutionAtoms_OEEE
_ZN4chem19ConstitutionAtoms_O32makeConstitutionAtomsFromResidueEN7gctools9smart_ptrINS_9Residue_OEEEb
_ZN4chem40chem__readPdbMonomerConnectivityDatabaseERKNSt3__112basic_stringIcNS0_11char_traitsIcEENS0_9allocatorIcEEEE
_ZN4chem18chem__findTopologyEN7gctools9smart_ptrIN4core3T_OEEEb
_ZN4chem16connect_residuesEN7gctools9smart_ptrINS_10Topology_OEEENS1_INS_9Residue_OEEENS1_IN4core8Symbol_OEEES3_S5_S8_
_ZN4chem23chem__restart_minimizerEv
_ZN4chem11Minimizer_O4makeEN7gctools9smart_ptrINS_17ScoringFunction_OEEE
_ZN4chem22atomicWeightForElementENS_7ElementE
_ZN4chem27integerAtomicMassForElementENS_7ElementE
_ZN4chem22atomicNumberForElementENS_7ElementE
_ZN4chem27elementForIntegerAtomicMassEi
_ZN4chem22elementForAtomicNumberEi
_ZN4chem19all_element_symbolsEv
_ZN4chem25elementFromAtomNameStringERKNSt3__112basic_stringIcNS0_11char_traitsIcEENS0_9allocatorIcEEEE
_ZN4chem40elementFromAtomNameStringCaseInsensitiveERKNSt3__112basic_stringIcNS0_11char_traitsIcEENS0_9allocatorIcEEEE
_ZN4chem19vdwRadiusForElementENS_7ElementE
_ZN4chem23atomicSymbolFromElementENS_7ElementE
_ZN4chem36hybridizationSymbolFromHybridizationENS_13HybridizationE
_ZN4chem22hybridizationForStringERKNSt3__112basic_stringIcNS0_11char_traitsIcEENS0_9allocatorIcEEEE
_ZN4chem23symbolFromHybridizationENS_13HybridizationE
_ZN4chem19chem__single_bond_pENS_13BondOrderEnumE
_ZN4chem40chem__distance_squared_between_two_atomsEN7gctools9smart_ptrINS_6Atom_OEEES3_
_ZN4chem6Atom_O4makeEN7gctools9smart_ptrIN4core8Symbol_OEEENS_7ElementE
_ZN4chem9Residue_O4makeEN7gctools9smart_ptrIN4core8Symbol_OEEE
_ZN4chem10Molecule_O4makeEN7gctools9smart_ptrIN4core8Symbol_OEEE
_ZN4chem11Aggregate_O4makeEN7gctools9smart_ptrIN4core8Symbol_OEEE
_ZN4chem53chem__bounding_box_distance_squared_between_two_atomsEN7gctools9smart_ptrINS_13BoundingBox_OEEENS1_INS_6Atom_OEEES5_
_ZN4chem54chem__bounding_box_distance_squared_between_two_pointsEN7gctools9smart_ptrINS_13BoundingBox_OEEERK7Vector3S6_
_ZN4chem17chem__matter_copyEN7gctools9smart_ptrINS_8Matter_OEEENS1_IN4core3T_OEEE
_ZN4chem13chem__verboseEm
_ZN4chem23chem__make_ffnonbond_dbEv
_ZN4chem34chem__combine_nonbond_force_fieldsEN7gctools9smart_ptrINS_13FFNonbondDb_OEEENS1_IN4core6List_VEEE
_ZN4chem23chem__FFNonbondDb_mergeEN7gctools9smart_ptrINS_13FFNonbondDb_OEEES3_
_ZN4chem22chem__improperAtomSortEN7gctools9smart_ptrINS_6Atom_OEEES3_S3_
_ZN4chem25chem__canonicalStretchKeyEN7gctools9smart_ptrIN4core8Symbol_OEEES4_
_ZN4chem21chem__make_fftypes_dbEv
_ZN4chem43chem__boost_graph_mcgregor_common_subgraphsEN7gctools9smart_ptrINS_15MoleculeGraph_OEEES3_bNS1_IN4core3T_OEEES6_m
_ZN4chem21chem__boost_graph_vf2EN7gctools9smart_ptrINS_15ChemInfoGraph_OEEENS1_INS_15MoleculeGraph_OEEE
_ZN4chem26chem__chem_info_graph_dumpEN7gctools9smart_ptrINS_15ChemInfoGraph_OEEE
_ZN4chem26chem__make_chem_info_graphEN7gctools9smart_ptrINS_6Root_OEEE
_ZN4chem25chem__molecule_graph_dumpEN7gctools9smart_ptrINS_15MoleculeGraph_OEEE
_ZN4chem39chem__make_molecule_graph_from_moleculeEN7gctools9smart_ptrINS_10Molecule_OEEEb
_ZN4chem25chem__make_molecule_graphEv
_ZN4chem29chem__chem_info_node_childrenEN7gctools9smart_ptrINS_14ChemInfoNode_OEEE
_ZN4chem13chem__matchesEN7gctools9smart_ptrINS_6Root_OEEENS1_INS_6Atom_OEEE
_ZN4chem21chem__chem_info_matchEN7gctools9smart_ptrINS_6Root_OEEENS1_INS_6Atom_OEEE
_ZN4chem25chem__compile_antechamberERKNSt3__112basic_stringIcNS0_11char_traitsIcEENS0_9allocatorIcEEEEN7gctools9smart_ptrINS_17WildElementDict_OEEE
_ZN4chem20chem__compile_smirksERKNSt3__112basic_stringIcNS0_11char_traitsIcEENS0_9allocatorIcEEEEN7gctools9smart_ptrIN4core6List_VEEE
_ZN4chem20chem__compile_smartsERKNSt3__112basic_stringIcNS0_11char_traitsIcEENS0_9allocatorIcEEEEN7gctools9smart_ptrIN4core6List_VEEE
_ZN4chem7am1BccYEN7gctools9smart_ptrINS_6Atom_OEEE
_ZN4chem7am1BccXEN7gctools9smart_ptrINS_6Atom_OEEE
_ZN4chem22chem__in_aromatic_bondEN7gctools9smart_ptrINS_6Atom_OEEES3_
_ZN4chem32chem__walk_chem_info_with_parentEN7gctools9smart_ptrINS_14ChemInfoNode_OEEENS1_IN4core3T_OEEE
_ZN4chem21makeConstitutionAtomsEv
_ZN4chem27makeConstitutionVirtualAtomEN7gctools9smart_ptrIN4core8Symbol_OEEENS_7ElementEmNS_19StereochemistryTypeENS1_INS2_6List_VEEENS1_INS_19CalculatePosition_OEEE
_ZN4chem20makeConstitutionAtomEN7gctools9smart_ptrIN4core8Symbol_OEEENS_7ElementENS1_INS2_3T_OEEEmNS_19StereochemistryTypeENS1_INS2_6List_VEEE
_ZN4chem20makeConstitutionBondEiNS_13BondOrderEnumE
_ZN4chem17elementIsHydrogenENS_7ElementE
_ZN4chem17symbolFromElementENS_7ElementE
_ZN5units10Quantity_O4makeEN7gctools9smart_ptrIN4core3T_OEEENS2_INS_6Unit_OEEE
_ZN5units6Unit_O4makeEN7gctools9smart_ptrIN4core6List_VEEE
_ZN4geom18geom__unit_vectorsEv
_ZN4geom24geom__in_place_transformEN7gctools9smart_ptrIN4core7Array_OEEERK6Matrix
_ZN4geom38geom__matrix_to_quaternion_translationEN7gctools9smart_ptrINS_9OMatrix_OEEE
_ZN4geom18geom__eigen_systemEN7gctools9smart_ptrINS_9OMatrix_OEEE
_ZN4geom19make_m4_rotate_axisEd7Vector3
_ZN4geom16make_m4_rotate_zEd
_ZN4geom16make_m4_rotate_yEd
_ZN4geom16make_m4_rotate_xEd
_ZN4geom17make_m4_translateERK7Vector3
_ZN4geom20make_matrix_identityEv
_ZN4geom9OMatrix_O4makeEb
_ZN4geom29geom__vec_extract_transformedER7Vector3N7gctools9smart_ptrIN4core21SimpleVector_double_OEEEmRK6Matrix
_ZN4geom13geom__vec_putEN7gctools9smart_ptrIN4core21SimpleVector_double_OEEERK7Vector3m
_ZN4geom17geom__vec_extractER7Vector3N7gctools9smart_ptrIN4core21SimpleVector_double_OEEEm
_ZN4geom22geom__planeVectorAngleEdd
_ZN4geom27buildUsingBondAngleDihedralEdRK7Vector3dS2_dS2_
_ZN4geom19buildUsingBondAngleEdRK7Vector3dS2_
_ZN4geom14buildUsingBondEdRK7Vector3
_ZN4geom11buildOriginEv
_ZN4geom17calculateDihedralERK7Vector3S2_S2_S2_
_ZN4geom14calculateAngleERK7Vector3S2_S2_
_ZN4geom24calculateDistanceSquaredERK7Vector3S2_
_ZN4geom17calculateDistanceERK7Vector3S2_
_ZN4geom53geom__internalCoordinatesFromPointAndCoordinateSystemERK7Vector3RK6Matrix
_ZN4geom43geom__pointFromMatrixAndInternalCoordinatesERK6Matrixddd
_ZN4geom21geom__invertTransformERK6Matrix
_ZN4geom37geom__inplace_transform_nvector_pointER7Vector3RK6MatrixN7gctools9smart_ptrIN4core21SimpleVector_double_OEEEm
_ZN4geom11geom__vec_pEN7gctools9smart_ptrINS_10OVector3_OEEE
_ZN4geom10OVector3_O4makeEddd
_ZN5adapt26chem__makeIndexedObjectBagEv
_ZN4core28core__num_logical_processorsEv
_ZN4core25cl__get_internal_run_timeEv
_ZN4core31core__clock_gettime_nanosecondsEv
_ZN4core26cl__get_internal_real_timeEv
_ZN4core28cl__ensure_directories_existEN7gctools9smart_ptrINS_3T_OEEE
_ZN4core14core__setf_eltEN7gctools9smart_ptrINS_3T_OEEEmS3_
_ZN4core7cl__eltEN7gctools9smart_ptrINS_3T_OEEEm
_ZN4core12cl__copy_seqEN7gctools9smart_ptrINS_3T_OEEE
_ZN4core10cl__subseqEN7gctools9smart_ptrINS_3T_OEEEmS3_
_ZN4core12cl__nreverseEN7gctools9smart_ptrINS_3T_OEEE
_ZN4core11cl__reverseEN7gctools9smart_ptrINS_3T_OEEE
_ZN4core10cl__lengthEN7gctools9smart_ptrINS_3T_OEEE
_ZN4core17coerce_to_packageEN7gctools9smart_ptrINS_3T_OEEE
_ZN4core18coerce_fdesignatorEN7gctools9smart_ptrINS_3T_OEEE
_ZN4core13cl__code_charEN7gctools9smart_ptrINS_9Integer_OEEE
_ZN4core12cl__char_intEN7gctools9smart_ptrINS_11Character_IEEE
_ZN4core13cl__char_codeEN7gctools9smart_ptrINS_11Character_IEEE
_ZN4core20core__all_charactersEv
_ZN4core13cl__char_nameEN7gctools9smart_ptrINS_11Character_IEEE
_ZN4core13cl__name_charEN7gctools9smart_ptrINS_3T_OEEE
_ZN4core16cl__digit_char_pEN7gctools9smart_ptrINS_11Character_IEEENS1_INS_8Fixnum_IEEE
_ZN4core16cl__alpha_char_pEN7gctools9smart_ptrINS_11Character_IEEE
_ZN4core19cl__standard_char_pEN7gctools9smart_ptrINS_11Character_IEEE
_ZN4core14cl__char_equalEN7gctools9smart_ptrINS_7VaslistEEE
_ZN4core24core__two_arg_char_equalEN7gctools9smart_ptrINS_11Character_IEEES3_
_ZN4core18cl__char_not_equalEN7gctools9smart_ptrINS_6List_VEEE
_ZN4core12cl__char_EQ_EN7gctools9smart_ptrINS_7VaslistEEE
_ZN4core12cl__char_NE_EN7gctools9smart_ptrINS_7VaslistEEE
_ZN4core18cl__char_not_lesspEN7gctools9smart_ptrINS_7VaslistEEE
_ZN4core28core__two_arg_char_not_lesspEN7gctools9smart_ptrINS_11Character_IEEES3_
_ZN4core21cl__char_not_greaterpEN7gctools9smart_ptrINS_7VaslistEEE
_ZN4core31core__two_arg_char_not_greaterpEN7gctools9smart_ptrINS_11Character_IEEES3_
_ZN4core17cl__char_greaterpEN7gctools9smart_ptrINS_7VaslistEEE
_ZN4core27core__two_arg_char_greaterpEN7gctools9smart_ptrINS_11Character_IEEES3_
_ZN4core14cl__char_lesspEN7gctools9smart_ptrINS_7VaslistEEE
_ZN4core24core__two_arg_char_lesspEN7gctools9smart_ptrINS_11Character_IEEES3_
_ZN4core12cl__char_GE_EN7gctools9smart_ptrINS_7VaslistEEE
_ZN4core22core__two_arg_char_GE_EN7gctools9smart_ptrINS_11Character_IEEES3_
_ZN4core12cl__char_LE_EN7gctools9smart_ptrINS_7VaslistEEE
_ZN4core22core__two_arg_char_LE_EN7gctools9smart_ptrINS_11Character_IEEES3_
_ZN4core12cl__char_GT_EN7gctools9smart_ptrINS_7VaslistEEE
_ZN4core22core__two_arg_char_GT_EN7gctools9smart_ptrINS_11Character_IEEES3_
_ZN4core12cl__char_LT_EN7gctools9smart_ptrINS_7VaslistEEE
_ZN4core22core__two_arg_char_LT_EN7gctools9smart_ptrINS_11Character_IEEES3_
_ZN4core17cl__char_downcaseEN7gctools9smart_ptrINS_11Character_IEEE
_ZN4core15cl__char_upcaseEN7gctools9smart_ptrINS_11Character_IEEE
_ZN4core17cl__alphanumericpEN7gctools9smart_ptrINS_11Character_IEEE
_ZN4core15cl__both_case_pEN7gctools9smart_ptrINS_11Character_IEEE
_ZN4core16cl__upper_case_pEN7gctools9smart_ptrINS_11Character_IEEE
_ZN4core16cl__lower_case_pEN7gctools9smart_ptrINS_11Character_IEEE
_ZN4core18cl__graphic_char_pEN7gctools9smart_ptrINS_11Character_IEEE
_ZN4core35core__ensure_single_dispatch_methodEN7gctools9smart_ptrINS_21FuncallableInstance_OEEENS1_INS_3T_OEEENS1_INS_10Instance_OEEENS1_INS_19LambdaListHandler_OEEENS1_INS_6List_VEEES5_NS1_INS_10Function_OEEE
_ZN4core45core__ensure_single_dispatch_generic_functionEN7gctools9smart_ptrINS_3T_OEEENS1_INS_19LambdaListHandler_OEEEbm
_ZN4core23core__set_documentationEN7gctools9smart_ptrINS_3T_OEEES3_S3_
_ZN4core26core__ensure_documentationEN7gctools9smart_ptrINS_3T_OEEENS1_INS_8Symbol_OEEENS1_INS_7Array_OEEE
_ZN4core22ext__remove_annotationEN7gctools9smart_ptrINS_3T_OEEES3_S3_
_ZN4core13ext__annotateEN7gctools9smart_ptrINS_3T_OEEES3_S3_S3_
_ZN4core22core__rem_record_fieldEN7gctools9smart_ptrINS_6List_VEEENS1_INS_3T_OEEES5_
_ZN4core22core__set_record_fieldEN7gctools9smart_ptrINS_6List_VEEENS1_INS_3T_OEEES5_S5_
_ZN4core18core__record_fieldEN7gctools9smart_ptrINS_6List_VEEENS1_INS_3T_OEEES5_
_ZN4core17core__record_consEN7gctools9smart_ptrINS_6List_VEEENS1_INS_3T_OEEES5_
_ZN4core29core__backquote_remove_tokensEN7gctools9smart_ptrINS_3T_OEEE
_ZN4core29core__backquote_attach_consesEN7gctools9smart_ptrINS_3T_OEEES3_
_ZN4core29core__backquote_attach_appendEN7gctools9smart_ptrINS_3T_OEEES3_S3_
_ZN4core30core__backquote_null_or_quotedEN7gctools9smart_ptrINS_3T_OEEE
_ZN4core29core__backquote_simplify_argsEN7gctools9smart_ptrINS_3T_OEEE
_ZN4core24core__backquote_simplifyEN7gctools9smart_ptrINS_3T_OEEE
_ZN4core23core__backquote_maptreeEN7gctools9smart_ptrINS_10Function_OEEENS1_INS_3T_OEEE
_ZN4core20core__backquote_frobEN7gctools9smart_ptrINS_3T_OEEE
_ZN4core29core__backquote_splicing_frobEN7gctools9smart_ptrINS_3T_OEEE
_ZN4core23core__backquote_bracketEN7gctools9smart_ptrINS_3T_OEEE
_ZN4core23core__backquote_processEN7gctools9smart_ptrINS_3T_OEEE
_ZN4core34core__backquote_completely_processEN7gctools9smart_ptrINS_3T_OEEE
_ZN4core27core__backquote_append_listEN7gctools9smart_ptrINS_6List_VEEE
_ZN4core22core__backquote_appendEN7gctools9smart_ptrINS_7VaslistEEE
_ZN4core10cl__formatEN7gctools9smart_ptrINS_3T_OEEES3_NS1_INS_6List_VEEE
_ZN4core12core__fflushEv
_ZN4core13core__bformatEN7gctools9smart_ptrINS_3T_OEEERKNSt3__112basic_stringIcNS4_11char_traitsIcEENS4_9allocatorIcEEEENS1_INS_6List_VEEE
_ZN4core17core__rem_syspropEN7gctools9smart_ptrINS_3T_OEEES3_
_ZN4core17core__get_syspropEN7gctools9smart_ptrINS_3T_OEEES3_
_ZN4core17core__put_syspropEN7gctools9smart_ptrINS_3T_OEEES3_S3_
_ZN4core19core__iterator_stepEN7gctools9smart_ptrINS_10Iterator_OEEE
_ZN4core29core__iterator_unsafe_elementEN7gctools9smart_ptrINS_10Iterator_OEEE
_ZN4core23core__pointer_incrementEN7gctools9smart_ptrINS_9Pointer_OEEEx
_ZN4core28core__replace_foreign_memoryEN7gctools9smart_ptrIN9clasp_ffi13ForeignData_OEEES4_m
_ZN4core25core__fill_foreign_memoryEN7gctools9smart_ptrIN9clasp_ffi13ForeignData_OEEEmm
_ZN4core30core__pointer_in_pointer_rangeEN7gctools9smart_ptrINS_9Pointer_OEEES3_NS1_INS_3T_OEEE
_ZN4core23core__pointer_as_stringEN7gctools9smart_ptrINS_9Pointer_OEEE
_ZN4core18core__make_pointerEN7gctools9smart_ptrINS_3T_OEEE
_ZN4core10cl__equalpEN7gctools9smart_ptrINS_3T_OEEES3_
_ZN4core15core__sl_boundpEN7gctools9smart_ptrINS_3T_OEEE
_ZN4core18core__instance_refEN7gctools9smart_ptrINS_3T_OEEEi
_ZN4core18core__instance_setEN7gctools9smart_ptrINS_3T_OEEEiS3_
_ZN4core22core__instance_sig_setEN7gctools9smart_ptrINS_3T_OEEE
_ZN4core18core__instance_sigEN7gctools9smart_ptrINS_3T_OEEE
_ZN4core26core__class_name_as_stringEN7gctools9smart_ptrINS_3T_OEEE
_ZN4core20core__instance_classEN7gctools9smart_ptrINS_3T_OEEE
_ZN4core26core__implementation_classEN7gctools9smart_ptrINS_3T_OEEE
_ZN4core13cl__copy_treeEN7gctools9smart_ptrINS_3T_OEEE
_ZN4core24core__low_level_describeEN7gctools9smart_ptrINS_3T_OEEE
_ZN4core22core__print_cxx_objectEN7gctools9smart_ptrINS_3T_OEEES3_
_ZN4core12core__decodeEN7gctools9smart_ptrINS_3T_OEEENS1_INS_6List_VEEE
_ZN4core12core__encodeEN7gctools9smart_ptrINS_3T_OEEE
_ZN4core13core__fieldspEN7gctools9smart_ptrINS_3T_OEEE
_ZN4core21core__load_cxx_objectEN7gctools9smart_ptrINS_3T_OEEES3_
_ZN4core21core__make_cxx_objectEN7gctools9smart_ptrINS_3T_OEEES3_
_ZN4core26core__verify_symbol_layoutEN7gctools9smart_ptrINS_3T_OEEE
_ZN4core30core__no_thread_local_bindingpEN7gctools9smart_ptrINS_3T_OEEE
_ZN4core31core__symbol_thread_local_valueEN7gctools9smart_ptrINS_8Symbol_OEEE
_ZN4core29core__symbol_global_value_setEN7gctools9smart_ptrINS_8Symbol_OEEENS1_INS_3T_OEEE
_ZN4core25core__symbol_global_valueEN7gctools9smart_ptrINS_8Symbol_OEEE
_ZN4core14core__fullnameEN7gctools9smart_ptrINS_8Symbol_OEEE
_ZN4core25core__setf_symbolFunctionEN7gctools9smart_ptrINS_10Function_OEEENS1_INS_8Symbol_OEEE
_ZN4core21core__STARmakeSpecialEN7gctools9smart_ptrINS_8Symbol_OEEE
_ZN4core21core__asKeywordSymbolEN7gctools9smart_ptrINS_8Symbol_OEEE
_ZN4core15cl__copy_symbolEN7gctools9smart_ptrINS_8Symbol_OEEENS1_INS_3T_OEEE
_ZN4core14cl__makunboundEN7gctools9smart_ptrINS_8Symbol_OEEE
_ZN4core15cl__make_symbolEN7gctools9smart_ptrINS_7Array_OEEE
_ZN4core28core__symbol_value_from_cellEN7gctools9smart_ptrINS_8Symbol_OEEENS1_INS_6Cons_OEEENS1_INS_3T_OEEE
_ZN4core22core__cas_symbol_valueEN7gctools9smart_ptrINS_3T_OEEES3_NS1_INS_8Symbol_OEEE
_ZN4core29core__atomic_set_symbol_valueEN7gctools9smart_ptrINS_3T_OEEENS1_INS_8Symbol_OEEE
_ZN4core25core__atomic_symbol_valueEN7gctools9smart_ptrINS_8Symbol_OEEE
_ZN4core16cl__symbol_valueEN7gctools9smart_ptrINS_8Symbol_OEEE
_ZN4core15cl__symbol_nameEN7gctools9smart_ptrINS_8Symbol_OEEE
_ZN4core13ext__specialpEN7gctools9smart_ptrINS_8Symbol_OEEE
_ZN4core19cl__symbol_functionEN7gctools9smart_ptrINS_8Symbol_OEEE
_ZN4core18cl__symbol_packageEN7gctools9smart_ptrINS_8Symbol_OEEE
_ZN4core10cl__boundpEN7gctools9smart_ptrINS_8Symbol_OEEE
_ZN4core7cl__getEN7gctools9smart_ptrINS_8Symbol_OEEENS1_INS_3T_OEEES5_
_ZN4core22core__cas_symbol_plistEN7gctools9smart_ptrINS_6List_VEEES3_NS1_INS_8Symbol_OEEE
_ZN4core29core__atomic_set_symbol_plistEN7gctools9smart_ptrINS_6List_VEEENS1_INS_8Symbol_OEEE
_ZN4core25core__atomic_symbol_plistEN7gctools9smart_ptrINS_8Symbol_OEEE
_ZN4core16cl__symbol_plistEN7gctools9smart_ptrINS_8Symbol_OEEE
_ZN4core24core__verify_cons_layoutEmmm
_ZN4core21core__alist_assoc_eqlEN7gctools9smart_ptrINS_6List_VEEENS1_INS_3T_OEEE
_ZN4core20core__alist_assoc_eqEN7gctools9smart_ptrINS_6List_VEEENS1_INS_3T_OEEE
_ZN4core17core__cons_lengthEN7gctools9smart_ptrINS_6Cons_OEEE
_ZN4core13core__append2EN7gctools9smart_ptrINS_6List_VEEES3_
_ZN4core15core__cons_sizeEv
_ZN4core13cl__make_listEN7gctools9smart_ptrINS_8Fixnum_IEEENS1_INS_3T_OEEE
_ZN4core10cl__rplacdEN7gctools9smart_ptrINS_6Cons_OEEENS1_INS_3T_OEEE
_ZN4core10cl__rplacaEN7gctools9smart_ptrINS_6Cons_OEEENS1_INS_3T_OEEE
_ZN4core8cl__consEN7gctools9smart_ptrINS_3T_OEEES3_
_ZN4core11core__rem_fEN7gctools9smart_ptrINS_6List_VEEENS1_INS_3T_OEEE
_ZN4core8cl__getfEN7gctools9smart_ptrINS_6List_VEEENS1_INS_3T_OEEES5_
_ZN4core11core__put_fEN7gctools9smart_ptrINS_6List_VEEENS1_INS_3T_OEEES5_
_ZN4core22core__sbv_position_oneEN7gctools9smart_ptrINS_17SimpleBitVector_OEEE
_ZN4core15core__sbv_zeropEN7gctools9smart_ptrINS_17SimpleBitVector_OEEE
_ZN4core16core__sbv_popcntEN7gctools9smart_ptrINS_17SimpleBitVector_OEEE
_ZN4core17core__sbv_bit_notEN7gctools9smart_ptrINS_17SimpleBitVector_OEEES3_m
_ZN4core18core__sbv_bit_orc2EN7gctools9smart_ptrINS_17SimpleBitVector_OEEES3_S3_m
_ZN4core18core__sbv_bit_orc1EN7gctools9smart_ptrINS_17SimpleBitVector_OEEES3_S3_m
_ZN4core19core__sbv_bit_andc2EN7gctools9smart_ptrINS_17SimpleBitVector_OEEES3_S3_m
_ZN4core19core__sbv_bit_andc1EN7gctools9smart_ptrINS_17SimpleBitVector_OEEES3_S3_m
_ZN4core17core__sbv_bit_eqvEN7gctools9smart_ptrINS_17SimpleBitVector_OEEES3_S3_m
_ZN4core17core__sbv_bit_norEN7gctools9smart_ptrINS_17SimpleBitVector_OEEES3_S3_m
_ZN4core18core__sbv_bit_nandEN7gctools9smart_ptrINS_17SimpleBitVector_OEEES3_S3_m
_ZN4core17core__sbv_bit_xorEN7gctools9smart_ptrINS_17SimpleBitVector_OEEES3_S3_m
_ZN4core17core__sbv_bit_iorEN7gctools9smart_ptrINS_17SimpleBitVector_OEEES3_S3_m
_ZN4core17core__sbv_bit_andEN7gctools9smart_ptrINS_17SimpleBitVector_OEEES3_S3_m
_ZN4core25core__fits_in_base_stringEN7gctools9smart_ptrINS_3T_OEEE
_ZN4core32core__copy_to_simple_base_stringEN7gctools9smart_ptrINS_3T_OEEE
_ZN4core11core__splitERKNSt3__112basic_stringIcNS0_11char_traitsIcEENS0_9allocatorIcEEEES8_
_ZN4core19core__search_stringEN7gctools9smart_ptrINS_7Array_OEEEmmS3_mm
_ZN4core29core__base_string_concatenateEN7gctools9smart_ptrINS_7VaslistEEE
_ZN4core17cl__parse_integerEN7gctools9smart_ptrINS_7Array_OEEExNS1_INS_3T_OEEEjS5_
_ZN4core8cl__charEN7gctools9smart_ptrINS_7Array_OEEEm
_ZN4core9cl__scharEN7gctools9smart_ptrINS_22AbstractSimpleVector_OEEEm
_ZN4core15cl__make_stringEN7gctools9smart_ptrINS_8Fixnum_IEEENS1_INS_3T_OEEES5_
_ZN4core20cl__string_not_lesspEN7gctools9smart_ptrINS_3T_OEEES3_NS1_INS_8Fixnum_IEEES3_S5_S3_
_ZN4core23cl__string_not_greaterpEN7gctools9smart_ptrINS_3T_OEEES3_NS1_INS_8Fixnum_IEEES3_S5_S3_
_ZN4core19cl__string_greaterpEN7gctools9smart_ptrINS_3T_OEEES3_NS1_INS_8Fixnum_IEEES3_S5_S3_
_ZN4core16cl__string_lesspEN7gctools9smart_ptrINS_3T_OEEES3_NS1_INS_8Fixnum_IEEES3_S5_S3_
_ZN4core20cl__string_not_equalEN7gctools9smart_ptrINS_3T_OEEES3_NS1_INS_8Fixnum_IEEES3_S5_S3_
_ZN4core16cl__string_equalEN7gctools9smart_ptrINS_3T_OEEES3_NS1_INS_8Fixnum_IEEES3_S5_S3_
_ZN4core14cl__string_GE_EN7gctools9smart_ptrINS_3T_OEEES3_NS1_INS_8Fixnum_IEEES3_S5_S3_
_ZN4core14cl__string_LE_EN7gctools9smart_ptrINS_3T_OEEES3_NS1_INS_8Fixnum_IEEES3_S5_S3_
_ZN4core14cl__string_GT_EN7gctools9smart_ptrINS_3T_OEEES3_NS1_INS_8Fixnum_IEEES3_S5_S3_
_ZN4core14cl__string_LT_EN7gctools9smart_ptrINS_3T_OEEES3_NS1_INS_8Fixnum_IEEES3_S5_S3_
_ZN4core14cl__string_NE_EN7gctools9smart_ptrINS_3T_OEEES3_NS1_INS_8Fixnum_IEEES3_S5_S3_
_ZN4core14cl__string_EQ_EN7gctools9smart_ptrINS_3T_OEEES3_NS1_INS_8Fixnum_IEEES3_S5_S3_
_ZN4core20cl__nstring_downcaseEN7gctools9smart_ptrINS_7Array_OEEE
_ZN4core18cl__nstring_upcaseEN7gctools9smart_ptrINS_7Array_OEEE
_ZN4core19cl__string_downcaseEN7gctools9smart_ptrINS_3T_OEEE
_ZN4core17cl__string_upcaseEN7gctools9smart_ptrINS_3T_OEEE
_ZN4core10cl__stringEN7gctools9smart_ptrINS_3T_OEEE
_ZN4core21cl__string_right_trimEN7gctools9smart_ptrINS_3T_OEEES3_
_ZN4core20cl__string_left_trimEN7gctools9smart_ptrINS_3T_OEEES3_
_ZN4core15cl__string_trimEN7gctools9smart_ptrINS_3T_OEEES3_
_ZN4core27ext__pinned_objects_funcallEN7gctools9smart_ptrINS_6List_VEEENS1_INS_3T_OEEE
_ZN4core18ext__array_pointerEN7gctools9smart_ptrINS_7Array_OEEE
_ZN4core25ext__array_storage_vectorEN7gctools9smart_ptrINS_7Array_OEEE
_ZN4core27core__static_vector_pointerEN7gctools9smart_ptrINS_7Array_OEEEm
_ZN4core27core__static_vector_addressEN7gctools9smart_ptrINS_7Array_OEEE
_ZN4core35core__coerce_memory_to_foreign_dataEN7gctools9smart_ptrINS_7Array_OEEE
_ZN4core28core__coerce_to_byte8_vectorEN7gctools9smart_ptrINS_3T_OEEE
_ZN4core27core__verify_mdarray_layoutEN7gctools9smart_ptrINS_3T_OEEE
_ZN4core33core__verify_simple_vector_layoutEmm
_ZN4core22cl__vector_push_extendEN7gctools9smart_ptrINS_3T_OEEENS1_INS_7Array_OEEEm
_ZN4core15cl__vector_pushEN7gctools9smart_ptrINS_3T_OEEENS1_INS_7Array_OEEE
_ZN4core18core__make_mdarrayEN7gctools9smart_ptrINS_6List_VEEENS1_INS_3T_OEEEbS5_NS1_INS_8Fixnum_IEEES5_b
_ZN4core24core__make_static_vectorEN7gctools9smart_ptrINS_3T_OEEEmS3_b
_ZN4core17core__make_vectorEN7gctools9smart_ptrINS_3T_OEEEmbS3_S3_NS1_INS_8Fixnum_IEEES3_b
_ZN4core32core__make_simple_mdarray_size_tEN7gctools9smart_ptrINS_6List_VEEENS1_INS_3T_OEEEb
_ZN4core32core__make_simple_mdarray_fixnumEN7gctools9smart_ptrINS_6List_VEEENS1_INS_3T_OEEEb
_ZN4core32core__make_simple_mdarray_byte64EN7gctools9smart_ptrINS_6List_VEEENS1_INS_3T_OEEEb
_ZN4core31core__make_simple_mdarray_int64EN7gctools9smart_ptrINS_6List_VEEENS1_INS_3T_OEEEb
_ZN4core32core__make_simple_mdarray_byte32EN7gctools9smart_ptrINS_6List_VEEENS1_INS_3T_OEEEb
_ZN4core31core__make_simple_mdarray_int32EN7gctools9smart_ptrINS_6List_VEEENS1_INS_3T_OEEEb
_ZN4core32core__make_simple_mdarray_byte16EN7gctools9smart_ptrINS_6List_VEEENS1_INS_3T_OEEEb
_ZN4core31core__make_simple_mdarray_int16EN7gctools9smart_ptrINS_6List_VEEENS1_INS_3T_OEEEb
_ZN4core31core__make_simple_mdarray_byte8EN7gctools9smart_ptrINS_6List_VEEENS1_INS_3T_OEEEb
_ZN4core30core__make_simple_mdarray_int8EN7gctools9smart_ptrINS_6List_VEEENS1_INS_3T_OEEEb
_ZN4core31core__make_simple_mdarray_byte4EN7gctools9smart_ptrINS_6List_VEEENS1_INS_3T_OEEEb
_ZN4core30core__make_simple_mdarray_int4EN7gctools9smart_ptrINS_6List_VEEENS1_INS_3T_OEEEb
_ZN4core31core__make_simple_mdarray_byte2EN7gctools9smart_ptrINS_6List_VEEENS1_INS_3T_OEEEb
_ZN4core30core__make_simple_mdarray_int2EN7gctools9smart_ptrINS_6List_VEEENS1_INS_3T_OEEEb
_ZN4core38core__make_simple_mdarray_double_floatEN7gctools9smart_ptrINS_6List_VEEENS1_INS_3T_OEEEb
_ZN4core38core__make_simple_mdarray_single_floatEN7gctools9smart_ptrINS_6List_VEEENS1_INS_3T_OEEEb
_ZN4core35core__make_simple_mdarray_characterEN7gctools9smart_ptrINS_6List_VEEENS1_INS_3T_OEEEb
_ZN4core35core__make_simple_mdarray_base_charEN7gctools9smart_ptrINS_6List_VEEENS1_INS_3T_OEEEb
_ZN4core29core__make_simple_mdarray_bitEN7gctools9smart_ptrINS_6List_VEEENS1_INS_3T_OEEEb
_ZN4core27core__make_simple_mdarray_tEN7gctools9smart_ptrINS_6List_VEEENS1_INS_3T_OEEEb
_ZN4core31core__make_simple_vector_size_tEmN7gctools9smart_ptrINS_3T_OEEEb
_ZN4core31core__make_simple_vector_fixnumEmN7gctools9smart_ptrINS_3T_OEEEb
_ZN4core31core__make_simple_vector_byte64EmN7gctools9smart_ptrINS_3T_OEEEb
_ZN4core30core__make_simple_vector_int64EmN7gctools9smart_ptrINS_3T_OEEEb
_ZN4core31core__make_simple_vector_byte32EmN7gctools9smart_ptrINS_3T_OEEEb
_ZN4core30core__make_simple_vector_int32EmN7gctools9smart_ptrINS_3T_OEEEb
_ZN4core31core__make_simple_vector_byte16EmN7gctools9smart_ptrINS_3T_OEEEb
_ZN4core30core__make_simple_vector_int16EmN7gctools9smart_ptrINS_3T_OEEEb
_ZN4core30core__make_simple_vector_byte8EmN7gctools9smart_ptrINS_3T_OEEEb
_ZN4core29core__make_simple_vector_int8EmN7gctools9smart_ptrINS_3T_OEEEb
_ZN4core30core__make_simple_vector_byte4EmN7gctools9smart_ptrINS_3T_OEEEb
_ZN4core29core__make_simple_vector_int4EmN7gctools9smart_ptrINS_3T_OEEEb
_ZN4core30core__make_simple_vector_byte2EmN7gctools9smart_ptrINS_3T_OEEEb
_ZN4core29core__make_simple_vector_int2EmN7gctools9smart_ptrINS_3T_OEEEb
_ZN4core37core__make_simple_vector_double_floatEmN7gctools9smart_ptrINS_3T_OEEEb
_ZN4core37core__make_simple_vector_single_floatEmN7gctools9smart_ptrINS_3T_OEEEb
_ZN4core34core__make_simple_vector_characterEmN7gctools9smart_ptrINS_3T_OEEEb
_ZN4core34core__make_simple_vector_base_charEmN7gctools9smart_ptrINS_3T_OEEEb
_ZN4core28core__make_simple_vector_bitEmN7gctools9smart_ptrINS_3T_OEEEb
_ZN4core26core__make_simple_vector_tEmN7gctools9smart_ptrINS_3T_OEEEb
_ZN4core10cl__vectorEN7gctools9smart_ptrINS_6List_VEEE
_ZN4core19core__replace_arrayEN7gctools9smart_ptrINS_7Array_OEEES3_
_ZN4core22core__fillArrayWithEltEN7gctools9smart_ptrINS_7Array_OEEENS1_INS_3T_OEEExS5_
_ZN4core9cl__svrefEN7gctools9smart_ptrINS_14SimpleVector_OEEEm
_ZN4core11core__indexEN7gctools9smart_ptrINS_7Array_OEEENS1_INS_7VaslistEEE
_ZN4core8cl__arefEN7gctools9smart_ptrINS_7Array_OEEENS1_INS_7VaslistEEE
_ZN4core35core__PERCENTdisplaced_index_offsetEN7gctools9smart_ptrINS_9MDArray_OEEE
_ZN4core25core__PERCENTdisplacementEN7gctools9smart_ptrINS_9MDArray_OEEE
_ZN4core22cl__array_displacementEN7gctools9smart_ptrINS_7Array_OEEE
_ZN4core14cl__array_rankEN7gctools9smart_ptrINS_7Array_OEEE
_ZN4core18cl__arrayTotalSizeEN7gctools9smart_ptrINS_7Array_OEEE
_ZN4core24cl__arrayHasFillPointerPEN7gctools9smart_ptrINS_7Array_OEEE
_ZN4core15cl__fillPointerEN7gctools9smart_ptrINS_7Array_OEEE
_ZN4core20core__fillPointerSetEN7gctools9smart_ptrINS_7Array_OEEEm
_ZN4core18core__mdarray_dumpEN7gctools9smart_ptrINS_7Array_OEEE
_ZN4core16core__arrayFlagsEN7gctools9smart_ptrINS_7Array_OEEE
_ZN4core10core__vrefEN7gctools9smart_ptrINS_22AbstractSimpleVector_OEEEm
_ZN4core16cl__rowMajorArefEN7gctools9smart_ptrINS_7Array_OEEEx
_ZN4core16cl__rowMajorAsetEN7gctools9smart_ptrINS_7Array_OEEExNS1_INS_3T_OEEE
_ZN4core22cl__arrayRowMajorIndexEN7gctools9smart_ptrINS_7Array_OEEENS1_INS_7VaslistEEE
_ZN4core20cl__arrayElementTypeEN7gctools9smart_ptrINS_7Array_OEEE
_ZN4core17core__check_indexEmmm
_ZN4core16core__check_rankEN7gctools9smart_ptrINS_7Array_OEEEm
_ZN4core19core__data_vector_pEN7gctools9smart_ptrINS_3T_OEEE
_ZN4core18cl__arrayDimensionEN7gctools9smart_ptrINS_7Array_OEEEm
_ZN4core22cl__adjustable_array_pEN7gctools9smart_ptrINS_7Array_OEEE
_ZN4core19cl__arrayDimensionsEN7gctools9smart_ptrINS_7Array_OEEE
_ZN4core43core__calculate_missing_common_lisp_symbolsEv
_ZN4core16cl__package_nameEN7gctools9smart_ptrINS_3T_OEEE
_ZN4core24cl__package_used_by_listEN7gctools9smart_ptrINS_3T_OEEE
_ZN4core20cl__package_use_listEN7gctools9smart_ptrINS_3T_OEEE
_ZN4core11cl__gentempEN7gctools9smart_ptrINS_3T_OEEES3_
_ZN4core20cl__shadowing_importEN7gctools9smart_ptrINS_3T_OEEES3_
_ZN4core27core__package_documentationEN7gctools9smart_ptrINS_9Package_OEEE
_ZN4core10cl__shadowEN7gctools9smart_ptrINS_3T_OEEES3_
_ZN4core10cl__importEN7gctools9smart_ptrINS_3T_OEEES3_
_ZN4core29cl__package_shadowing_symbolsEN7gctools9smart_ptrINS_3T_OEEE
_ZN4core18cl__delete_packageEN7gctools9smart_ptrINS_3T_OEEE
_ZN4core17cl__unuse_packageEN7gctools9smart_ptrINS_3T_OEEES3_
_ZN4core15cl__use_packageEN7gctools9smart_ptrINS_3T_OEEES3_
_ZN4core21cl__list_all_packagesEv
_ZN4core16cl__make_packageEN7gctools9smart_ptrINS_3T_OEEENS1_INS_6List_VEEES5_
_ZN4core15cl__find_symbolEN7gctools9smart_ptrINS_7Array_OEEENS1_INS_3T_OEEE
_ZN4core12cl__uninternEN7gctools9smart_ptrINS_8Symbol_OEEENS1_INS_3T_OEEE
_ZN4core39core__call_with_package_read_write_lockEN7gctools9smart_ptrINS_9Package_OEEENS1_INS_10Function_OEEE
_ZN4core33core__call_with_package_read_lockEN7gctools9smart_ptrINS_9Package_OEEENS1_INS_10Function_OEEE
_ZN4core38core__package_local_nicknames_internalEN7gctools9smart_ptrINS_9Package_OEEE
_ZN4core28ext__package_remove_nicknameEN7gctools9smart_ptrINS_3T_OEEES3_
_ZN4core25ext__package_add_nicknameEN7gctools9smart_ptrINS_3T_OEEES3_
_ZN4core21cl__package_nicknamesEN7gctools9smart_ptrINS_3T_OEEE
_ZN4core18cl__rename_packageEN7gctools9smart_ptrINS_3T_OEEES3_S3_
_ZN4core18core__package_lockEN7gctools9smart_ptrINS_3T_OEEES3_
_ZN4core16core__cxxObjectPEN7gctools9smart_ptrINS_3T_OEEE
_ZN4core24core__logical_pathname_pEN7gctools9smart_ptrINS_3T_OEEE
_ZN4core13cl__pathnamepEN7gctools9smart_ptrINS_3T_OEEE
_ZN4core28core__function_description_pEN7gctools9smart_ptrINS_3T_OEEE
_ZN4core35core__local_entry_point_generator_pEN7gctools9smart_ptrINS_3T_OEEE
_ZN4core36core__global_entry_point_generator_pEN7gctools9smart_ptrINS_3T_OEEE
_ZN4core19core__proper_list_pEN7gctools9smart_ptrINS_3T_OEEE
_ZN4core23cl__compiled_function_pEN7gctools9smart_ptrINS_3T_OEEE
_ZN4core19cl__simple_vector_pEN7gctools9smart_ptrINS_3T_OEEE
_ZN4core23cl__simple_bit_vector_pEN7gctools9smart_ptrINS_3T_OEEE
_ZN4core23core__external_object_pEN7gctools9smart_ptrINS_3T_OEEE
_ZN4core24core__activation_frame_pEN7gctools9smart_ptrINS_3T_OEEE
_ZN4core40core__single_dispatch_generic_function_pEN7gctools9smart_ptrINS_3T_OEEE
_ZN4core12core__arraypEN7gctools9smart_ptrINS_3T_OEEE
_ZN4core14cl__readtablepEN7gctools9smart_ptrINS_3T_OEEE
_ZN4core16cl__hash_table_pEN7gctools9smart_ptrINS_3T_OEEE
_ZN4core16cl__bit_vector_pEN7gctools9smart_ptrINS_3T_OEEE
_ZN4core12cl__keywordpEN7gctools9smart_ptrINS_3T_OEEE
_ZN4core12cl__integerpEN7gctools9smart_ptrINS_3T_OEEE
_ZN4core11cl__vectorpEN7gctools9smart_ptrINS_3T_OEEE
_ZN4core10cl__floatpEN7gctools9smart_ptrINS_3T_OEEE
_ZN4core9cl__realpEN7gctools9smart_ptrINS_3T_OEEE
_ZN4core20core__single_float_pEN7gctools9smart_ptrINS_3T_OEEE
_ZN4core19core__short_float_pEN7gctools9smart_ptrINS_3T_OEEE
_ZN4core18core__long_float_pEN7gctools9smart_ptrINS_3T_OEEE
_ZN4core13cl__rationalpEN7gctools9smart_ptrINS_3T_OEEE
_ZN4core23core__source_pos_info_pEN7gctools9smart_ptrINS_3T_OEEE
_ZN4core18cl__random_state_pEN7gctools9smart_ptrINS_3T_OEEE
_ZN4core13core__ratio_pEN7gctools9smart_ptrINS_3T_OEEE
_ZN4core12cl__complexpEN7gctools9smart_ptrINS_3T_OEEE
_ZN4core11cl__numberpEN7gctools9smart_ptrINS_3T_OEEE
_ZN4core27core__lambda_list_handler_pEN7gctools9smart_ptrINS_3T_OEEE
_ZN4core15core__instancepEN7gctools9smart_ptrINS_3T_OEEE
_ZN4core12clos__classpEN7gctools9smart_ptrINS_3T_OEEE
_ZN4core12cl__packagepEN7gctools9smart_ptrINS_3T_OEEE
_ZN4core28core__interpreted_function_pEN7gctools9smart_ptrINS_3T_OEEE
_ZN4core13cl__functionpEN7gctools9smart_ptrINS_3T_OEEE
_ZN4core20core__double_float_pEN7gctools9smart_ptrINS_3T_OEEE
_ZN4core23core__extended_string_pEN7gctools9smart_ptrINS_3T_OEEE
_ZN4core19cl__simple_string_pEN7gctools9smart_ptrINS_3T_OEEE
_ZN4core11cl__stringpEN7gctools9smart_ptrINS_3T_OEEE
_ZN4core19core__base_string_pEN7gctools9smart_ptrINS_3T_OEEE
_ZN4core13core__bignumpEN7gctools9smart_ptrINS_3T_OEEE
_ZN4core17core__base_char_pEN7gctools9smart_ptrINS_3T_OEEE
_ZN4core14core__generalpEN7gctools9smart_ptrINS_3T_OEEE
_ZN4core15core__subclasspEN7gctools9smart_ptrINS_3T_OEEES3_
_ZN4core30core__compute_instance_creatorEN7gctools9smart_ptrINS_3T_OEEES3_NS1_INS_6List_VEEE
_ZN4core17core__wrong_indexERKNSt3__112basic_stringIcNS0_11char_traitsIcEENS0_9allocatorIcEEEEiN7gctools9smart_ptrINS_8Symbol_OEEENSA_INS_3T_OEEEiSE_i
_ZN4core24core__wrong_type_nth_argERKNSt3__112basic_stringIcNS0_11char_traitsIcEENS0_9allocatorIcEEEEiN7gctools9smart_ptrINS_8Symbol_OEEEiNSA_INS_3T_OEEESE_
_ZN4core25core__wrong_type_argumentERKNSt3__112basic_stringIcNS0_11char_traitsIcEENS0_9allocatorIcEEEEiN7gctools9smart_ptrINS_8Symbol_OEEENSA_INS_3T_OEEESE_
_ZN4core34core__function_wrong_type_argumentEN7gctools9smart_ptrINS_8Symbol_OEEENS1_INS_3T_OEEES5_
_ZN4core18add_debug_filenameERKNSt3__112basic_stringIcNS0_11char_traitsIcEENS0_9allocatorIcEEEE
_ZN4core25core__signal_simple_errorEN7gctools9smart_ptrINS_3T_OEEES3_S3_S3_S3_
_ZN4core23core__active_catch_tagsEv
_ZN4core30cl__translate_logical_pathnameEN7gctools9smart_ptrINS_3T_OEEE
_ZN4core22cl__translate_pathnameEN7gctools9smart_ptrINS_3T_OEEES3_S3_S3_
_ZN4core20cl__pathname_match_pEN7gctools9smart_ptrINS_3T_OEEES3_
_ZN4core21cl__enough_namestringEN7gctools9smart_ptrINS_3T_OEEES3_
_ZN4core19cl__host_namestringEN7gctools9smart_ptrINS_3T_OEEE
_ZN4core24cl__directory_namestringEN7gctools9smart_ptrINS_3T_OEEE
_ZN4core19cl__file_namestringEN7gctools9smart_ptrINS_3T_OEEE
_ZN4core20cl__pathname_versionEN7gctools9smart_ptrINS_3T_OEEE
_ZN4core17cl__pathname_typeEN7gctools9smart_ptrINS_3T_OEEENS1_INS_8Symbol_OEEE
_ZN4core17cl__pathname_nameEN7gctools9smart_ptrINS_3T_OEEENS1_INS_8Symbol_OEEE
_ZN4core22cl__pathname_directoryEN7gctools9smart_ptrINS_3T_OEEENS1_INS_8Symbol_OEEE
_ZN4core19cl__pathname_deviceEN7gctools9smart_ptrINS_3T_OEEENS1_INS_8Symbol_OEEE
_ZN4core17cl__pathname_hostEN7gctools9smart_ptrINS_3T_OEEENS1_INS_8Symbol_OEEE
_ZN4core17cl__make_pathnameEN7gctools9smart_ptrINS_3T_OEEEbS3_bS3_bS3_bS3_bS3_bS3_S3_
_ZN4core20cl__parse_namestringEN7gctools9smart_ptrINS_3T_OEEES3_S3_NS1_INS_8Fixnum_IEEES3_b
_ZN4core14cl__namestringEN7gctools9smart_ptrINS_3T_OEEE
_ZN4core24core__coerce_to_filenameEN7gctools9smart_ptrINS_3T_OEEE
_ZN4core33core__coerce_to_physical_pathnameEN7gctools9smart_ptrINS_3T_OEEE
_ZN4core29core__coerce_to_file_pathnameEN7gctools9smart_ptrINS_3T_OEEE
_ZN4core19cl__wild_pathname_pEN7gctools9smart_ptrINS_3T_OEEES3_
_ZN4core19cl__merge_pathnamesEN7gctools9smart_ptrINS_3T_OEEES3_S3_
_ZN4core20cl__logical_pathnameEN7gctools9smart_ptrINS_3T_OEEE
_ZN4core12cl__pathnameEN7gctools9smart_ptrINS_3T_OEEE
_ZN4core46core__safe_default_pathname_defaults_host_onlyEv
_ZN4core36core__safe_default_pathname_defaultsEv
_ZN4core27core__pathname_translationsEN7gctools9smart_ptrINS_3T_OEEES3_S3_
_ZN4core21core__float_to_digitsEN7gctools9smart_ptrINS_3T_OEEENS1_INS_7Float_OEEES3_S3_
_ZN4core24core__sharp_vertical_barEN7gctools9smart_ptrINS_3T_OEEENS1_INS_11Character_IEEES3_
_ZN4core17core__sharp_minusEN7gctools9smart_ptrINS_3T_OEEENS1_INS_11Character_IEEES3_
_ZN4core16core__sharp_plusEN7gctools9smart_ptrINS_3T_OEEENS1_INS_11Character_IEEES3_
_ZN4core22core__reader_feature_pEN7gctools9smart_ptrINS_3T_OEEE
_ZN4core13core__sharp_pEN7gctools9smart_ptrINS_3T_OEEENS1_INS_11Character_IEEES3_
_ZN4core13core__sharp_sEN7gctools9smart_ptrINS_3T_OEEENS1_INS_11Character_IEEES3_
_ZN4core13core__sharp_aEN7gctools9smart_ptrINS_3T_OEEENS1_INS_11Character_IEEES3_
_ZN4core13core__sharp_cEN7gctools9smart_ptrINS_3T_OEEENS1_INS_11Character_IEEES3_
_ZN4core13core__sharp_xEN7gctools9smart_ptrINS_3T_OEEENS1_INS_11Character_IEEES3_
_ZN4core13core__sharp_oEN7gctools9smart_ptrINS_3T_OEEENS1_INS_11Character_IEEES3_
_ZN4core13core__sharp_bEN7gctools9smart_ptrINS_3T_OEEENS1_INS_11Character_IEEES3_
_ZN4core13core__sharp_rEN7gctools9smart_ptrINS_3T_OEEENS1_INS_11Character_IEEES3_
_ZN4core17core__sharp_colonEN7gctools9smart_ptrINS_3T_OEEENS1_INS_11Character_IEEES3_
_ZN4core20core__sharp_asteriskEN7gctools9smart_ptrINS_3T_OEEENS1_INS_11Character_IEEES3_
_ZN4core31core__sharp_foreign_data_readerEN7gctools9smart_ptrINS_3T_OEEENS1_INS_11Character_IEEES3_
_ZN4core28core__sharp_left_parenthesisEN7gctools9smart_ptrINS_3T_OEEENS1_INS_11Character_IEEES3_
_ZN4core24core__sharp_single_quoteEN7gctools9smart_ptrINS_3T_OEEENS1_INS_11Character_IEEES3_
_ZN4core15core__sharp_dotEN7gctools9smart_ptrINS_3T_OEEENS1_INS_11Character_IEEES3_
_ZN4core21core__sharp_backslashEN7gctools9smart_ptrINS_3T_OEEENS1_INS_11Character_IEEES3_
_ZN4core30core__dispatch_macro_characterEN7gctools9smart_ptrINS_3T_OEEENS1_INS_11Character_IEEE
_ZN4core35core__reader_skip_semicolon_commentEN7gctools9smart_ptrINS_3T_OEEENS1_INS_11Character_IEEE
_ZN4core18core__reader_quoteEN7gctools9smart_ptrINS_3T_OEEENS1_INS_11Character_IEEE
_ZN4core46core__reader_error_unmatched_close_parenthesisEN7gctools9smart_ptrINS_3T_OEEENS1_INS_11Character_IEEE
_ZN3ext15ext__maybeQuoteEN7gctools9smart_ptrIN4core3T_OEEE
_ZN3ext21local_function_form_pEN7gctools9smart_ptrIN4core3T_OEEE
_ZN4core23core__reader_comma_formEN7gctools9smart_ptrINS_3T_OEEENS1_INS_11Character_IEEE
_ZN4core36core__reader_error_backquote_contextEN7gctools9smart_ptrINS_3T_OEEE
_ZN4core34core__reader_backquoted_expressionEN7gctools9smart_ptrINS_3T_OEEENS1_INS_11Character_IEEE
_ZN4core32core__reader_double_quote_stringEN7gctools9smart_ptrINS_3T_OEEENS1_INS_11Character_IEEE
_ZN4core22core__setf_syntax_typeEN7gctools9smart_ptrINS_3T_OEEES3_NS1_INS_11Character_IEEE
_ZN4core17core__syntax_typeEN7gctools9smart_ptrINS_3T_OEEENS1_INS_11Character_IEEE
_ZN4core23cl__set_macro_characterEN7gctools9smart_ptrINS_11Character_IEEENS1_INS_3T_OEEES5_S5_
_ZN4core32cl__get_dispatch_macro_characterEN7gctools9smart_ptrINS_11Character_IEEES3_NS1_INS_3T_OEEE
_ZN4core32cl__set_dispatch_macro_characterEN7gctools9smart_ptrINS_11Character_IEEES3_NS1_INS_3T_OEEES5_
_ZN4core18cl__readtable_caseEN7gctools9smart_ptrINS_3T_OEEE
_ZN4core18cl__copy_readtableEN7gctools9smart_ptrINS_3T_OEEES3_
_ZN4core23cl__get_macro_characterEN7gctools9smart_ptrINS_11Character_IEEENS1_INS_3T_OEEE
_ZN4core33cl__make_dispatch_macro_characterEN7gctools9smart_ptrINS_11Character_IEEENS1_INS_3T_OEEES5_
_ZN4core24cl__set_syntax_from_charEN7gctools9smart_ptrINS_11Character_IEEES3_NS1_INS_3T_OEEES5_S5_
_ZN4core35core__verify_wrapped_pointer_layoutEm
_ZN4core21core__pointer_addressEN7gctools9smart_ptrINS_3T_OEEE
_ZN4core20core__pointer_deleteEN7gctools9smart_ptrINS_3T_OEEE
_ZN4core21core__pointer_releaseEN7gctools9smart_ptrINS_3T_OEEE
_ZN4core23core__write_ugly_objectEN7gctools9smart_ptrINS_3T_OEEES3_
_ZN4core22core__all_source_filesEv
_ZN4core7cl__notEN7gctools9smart_ptrINS_3T_OEEE
_ZN4core10core__reprEN7gctools9smart_ptrINS_3T_OEEE
_ZN4core10cl__cerrorEN7gctools9smart_ptrINS_3T_OEEES3_NS1_INS_6List_VEEE
_ZN4core9cl__errorEN7gctools9smart_ptrINS_3T_OEEENS1_INS_6List_VEEE
_ZN4core39core__invoke_internal_debugger_from_gdbEv
_ZN4core30core__invoke_internal_debuggerEN7gctools9smart_ptrINS_3T_OEEE
_ZN4core29core__universal_error_handlerEN7gctools9smart_ptrINS_3T_OEEES3_NS1_INS_6List_VEEE
_ZN4core10cl__internEN7gctools9smart_ptrINS_7Array_OEEENS1_INS_3T_OEEE
_ZN4core12cl__unexportEN7gctools9smart_ptrINS_3T_OEEES3_
_ZN4core10cl__exportEN7gctools9smart_ptrINS_3T_OEEES3_
_ZN4core19core__debug_log_offEv
_ZN4core18core__debug_log_onEv
_ZN4core8cl__sortEN7gctools9smart_ptrINS_6List_VEEENS1_INS_3T_OEEES5_
_ZN4core11cl__aproposEN7gctools9smart_ptrINS_3T_OEEES3_
_ZN4core15cl__macroexpandEN7gctools9smart_ptrINS_3T_OEEES3_
_ZN4core17cl__macroexpand_1EN7gctools9smart_ptrINS_3T_OEEES3_
_ZN4core14core__mpi_sizeEv
_ZN4core14core__mpi_rankEv
_ZN4core17core__mpi_enabledEv
_ZN4core20core__select_packageEN7gctools9smart_ptrINS_3T_OEEE
_ZN4core16cl__find_packageEN7gctools9smart_ptrINS_3T_OEEE
_ZN4core28core__find_file_in_lisp_pathEN7gctools9smart_ptrINS_7Array_OEEE
_ZN4core21core__setf_find_classEN7gctools9smart_ptrINS_3T_OEEENS1_INS_8Symbol_OEEE
_ZN4core14cl__find_classEN7gctools9smart_ptrINS_8Symbol_OEEEbNS1_INS_3T_OEEE
_ZN4core23core__find_class_holderEN7gctools9smart_ptrINS_8Symbol_OEEENS1_INS_3T_OEEE
_ZN4core29core__lookup_class_with_stampEx
_ZN4core13core__getlineEN7gctools9smart_ptrINS_7Array_OEEE
_ZN4core13core__member1EN7gctools9smart_ptrINS_3T_OEEENS1_INS_6List_VEEES3_S3_S3_
_ZN4core10cl__memberEN7gctools9smart_ptrINS_3T_OEEES3_S3_S3_S3_
_ZN4core9cl__assocEN7gctools9smart_ptrINS_3T_OEEENS1_INS_6List_VEEES3_S3_S3_
_ZN4core9cl__aconsEN7gctools9smart_ptrINS_3T_OEEES3_S3_
_ZN4core12core__cabortEv
_ZN4core10core__quitEi
_ZN4core23core__c_UNDERSCORE_exitEi
_ZN4core11core__cexitEi
_ZN4core10core__exitEi
_ZN4core25core__setup_stack_monitorEN7gctools9smart_ptrINS_3T_OEEES3_
_ZN4core17core__stack_limitEv
_ZN4core19core__stack_monitorEN7gctools9smart_ptrINS_3T_OEEE
_ZN4core16core__stack_usedEv
_ZN4core13core__no_rc_pEv
_ZN4core18core__rc_file_nameEv
_ZN4core25core__is_interactive_lispEv
_ZN4core25core__debugger_disabled_pEv
_ZN4core21ext__disable_debuggerEv
_ZN4core20ext__enable_debuggerEv
_ZN4core15core__noprint_pEv
_ZN4core16core__noinform_pEv
_ZN4core36core__singleDispatchGenericFunctionsEv
_ZN4core20core__low_level_replEv
_ZN4core25core__set_debug_byte_codeEN7gctools9smart_ptrINS_3T_OEEE
_ZN4core19core__monitor_writeERKNSt3__112basic_stringIcNS0_11char_traitsIcEENS0_9allocatorIcEEEE
_ZN4core23core__monitor_directoryEv
_ZN4core10cl__lognorEN7gctools9smart_ptrINS_9Integer_OEEES3_
_ZN4core11cl__lognandEN7gctools9smart_ptrINS_9Integer_OEEES3_
_ZN4core10cl__lognotEN7gctools9smart_ptrINS_9Integer_OEEE
_ZN4core11cl__logorc2EN7gctools9smart_ptrINS_9Integer_OEEES3_
_ZN4core11cl__logorc1EN7gctools9smart_ptrINS_9Integer_OEEES3_
_ZN4core12cl__logandc2EN7gctools9smart_ptrINS_9Integer_OEEES3_
_ZN4core12cl__logandc1EN7gctools9smart_ptrINS_9Integer_OEEES3_
_ZN4core10cl__logeqvEN7gctools9smart_ptrINS_6List_VEEE
_ZN4core10cl__logxorEN7gctools9smart_ptrINS_6List_VEEE
_ZN4core10cl__logiorEN7gctools9smart_ptrINS_6List_VEEE
_ZN4core10cl__logandEN7gctools9smart_ptrINS_6List_VEEE
_ZN4core16core__logeqv_2opEN7gctools9smart_ptrINS_9Integer_OEEES3_
_ZN4core16core__logior_2opEN7gctools9smart_ptrINS_9Integer_OEEES3_
_ZN4core16core__logxor_2opEN7gctools9smart_ptrINS_9Integer_OEEES3_
_ZN4core16core__logand_2opEN7gctools9smart_ptrINS_9Integer_OEEES3_
_ZN4core9cl__booleExN7gctools9smart_ptrINS_9Integer_OEEES3_
_ZN4core11cl__logbitpEN7gctools9smart_ptrINS_9Integer_OEEES3_
_ZN4core11core__lseekEixN7gctools9smart_ptrINS_8Symbol_OEEE
_ZN4core14core__close_fdEi
_ZN4core24core__fcntl_non_blockingEi
_ZN4core13core__read_fdEiN7gctools9smart_ptrINS_18SimpleBaseString_OEEE
_ZN4core18cl__write_sequenceEN7gctools9smart_ptrINS_3T_OEEES3_NS1_INS_8Fixnum_IEEES3_
_ZN4core17core__file_columnEN7gctools9smart_ptrINS_3T_OEEE
_ZN4core15cl__unread_charEN7gctools9smart_ptrINS_11Character_IEEENS1_INS_3T_OEEE
_ZN4core17cl__finish_outputEN7gctools9smart_ptrINS_3T_OEEE
_ZN4core16cl__force_outputEN7gctools9smart_ptrINS_3T_OEEE
_ZN4core10cl__listenEN7gctools9smart_ptrINS_3T_OEEE
_ZN4core16cl__clear_outputEN7gctools9smart_ptrINS_3T_OEEE
_ZN4core15cl__clear_inputEN7gctools9smart_ptrINS_3T_OEEE
_ZN4core14cl__write_charEN7gctools9smart_ptrINS_11Character_IEEENS1_INS_3T_OEEE
_ZN4core14cl__write_byteEN7gctools9smart_ptrINS_9Integer_OEEENS1_INS_3T_OEEE
_ZN4core14cl__write_lineEN7gctools9smart_ptrINS_7Array_OEEENS1_INS_3T_OEEEiS5_
_ZN4core17clasp_writeStringEN7gctools9smart_ptrINS_7Array_OEEENS1_INS_3T_OEEEiS5_
_ZN4core14cl__fresh_lineEN7gctools9smart_ptrINS_3T_OEEE
_ZN4core10cl__terpriEN7gctools9smart_ptrINS_3T_OEEE
_ZN4core13cl__read_lineEN7gctools9smart_ptrINS_3T_OEEES3_S3_S3_
_ZN4core20cl__read_from_stringEN7gctools9smart_ptrINS_7Array_OEEENS1_INS_3T_OEEES5_NS1_INS_8Fixnum_IEEES5_S5_
_ZN4core21cl__read_char_no_hangEN7gctools9smart_ptrINS_3T_OEEES3_S3_S3_
_ZN4core13cl__read_charEN7gctools9smart_ptrINS_3T_OEEES3_S3_S3_
_ZN4core13cl__peek_charEN7gctools9smart_ptrINS_3T_OEEES3_S3_S3_S3_
_ZN4core13cl__read_byteEN7gctools9smart_ptrINS_3T_OEEES3_S3_
_ZN4core34core__input_stream_source_pos_infoEN7gctools9smart_ptrINS_3T_OEEENS1_INS_11FileScope_OEEEmm
_ZN4core19core__stream_columnEN7gctools9smart_ptrINS_3T_OEEE
_ZN4core23core__stream_linenumberEN7gctools9smart_ptrINS_3T_OEEE
_ZN4core9cl__closeEN7gctools9smart_ptrINS_3T_OEEES3_
_ZN4core15core__closeSTAREN7gctools9smart_ptrINS_3T_OEEES3_
_ZN4core8cl__openEN7gctools9smart_ptrINS_3T_OEEES3_S3_S3_bS3_bS3_S3_
_ZN4core11cl__streampEN7gctools9smart_ptrINS_3T_OEEE
_ZN4core26cl__stream_external_formatEN7gctools9smart_ptrINS_3T_OEEE
_ZN4core23cl__stream_element_typeEN7gctools9smart_ptrINS_3T_OEEE
_ZN4core29core__stream_element_typeSTAREN7gctools9smart_ptrINS_3T_OEEE
_ZN4core17cl__open_stream_pEN7gctools9smart_ptrINS_3T_OEEE
_ZN4core23core__open_stream_pSTAREN7gctools9smart_ptrINS_3T_OEEE
_ZN4core24cl__interactive_stream_pEN7gctools9smart_ptrINS_3T_OEEE
_ZN4core19cl__output_stream_pEN7gctools9smart_ptrINS_3T_OEEE
_ZN4core25core__output_stream_pSTAREN7gctools9smart_ptrINS_3T_OEEE
_ZN4core18cl__input_stream_pEN7gctools9smart_ptrINS_3T_OEEE
_ZN4core24core__input_stream_pSTAREN7gctools9smart_ptrINS_3T_OEEE
_ZN4core17cl__file_positionEN7gctools9smart_ptrINS_3T_OEEES3_
_ZN4core15cl__file_lengthEN7gctools9smart_ptrINS_3T_OEEE
_ZN4core22core__do_read_sequenceEN7gctools9smart_ptrINS_3T_OEEES3_S3_S3_
_ZN4core17cl__read_sequenceEN7gctools9smart_ptrINS_3T_OEEES3_S3_S3_
_ZN4core23core__do_write_sequenceEN7gctools9smart_ptrINS_3T_OEEES3_S3_S3_
_ZN4core22cl__file_string_lengthEN7gctools9smart_ptrINS_3T_OEEES3_
_ZN4core20core__file_stream_fdEN7gctools9smart_ptrINS_3T_OEEE
_ZN4core32ext__file_stream_file_descriptorEN7gctools9smart_ptrINS_3T_OEEE
_ZN4core24core__set_buffering_modeEN7gctools9smart_ptrINS_3T_OEEES3_
_ZN4core25cl__synonym_stream_symbolEN7gctools9smart_ptrINS_3T_OEEE
_ZN4core23cl__make_synonym_streamEN7gctools9smart_ptrINS_3T_OEEE
_ZN4core31cl__concatenated_stream_streamsEN7gctools9smart_ptrINS_3T_OEEE
_ZN4core28cl__make_concatenated_streamEN7gctools9smart_ptrINS_6List_VEEE
_ZN4core29cl__echo_stream_output_streamEN7gctools9smart_ptrINS_3T_OEEE
_ZN4core28cl__echo_stream_input_streamEN7gctools9smart_ptrINS_3T_OEEE
_ZN4core20cl__make_echo_streamEN7gctools9smart_ptrINS_3T_OEEES3_
_ZN4core28cl__broadcast_stream_streamsEN7gctools9smart_ptrINS_3T_OEEE
_ZN4core25cl__make_broadcast_streamEN7gctools9smart_ptrINS_6List_VEEE
_ZN4core32cl__two_way_stream_output_streamEN7gctools9smart_ptrINS_3T_OEEE
_ZN4core31cl__two_way_stream_input_streamEN7gctools9smart_ptrINS_3T_OEEE
_ZN4core23cl__make_two_way_streamEN7gctools9smart_ptrINS_3T_OEEES3_
_ZN4core28cl__make_string_input_streamEN7gctools9smart_ptrINS_7Array_OEEExNS1_INS_3T_OEEE
_ZN4core20core__make_fd_streamEiN7gctools9smart_ptrINS_8Symbol_OEEE
_ZN4core28cl__get_output_stream_stringEN7gctools9smart_ptrINS_3T_OEEE
_ZN4core29cl__make_string_output_streamEN7gctools9smart_ptrINS_8Symbol_OEEE
_ZN4core43core__make_string_output_stream_from_stringEN7gctools9smart_ptrINS_3T_OEEE
_ZN4core59core__get_thread_local_write_to_string_output_stream_stringEN7gctools9smart_ptrINS_20StringOutputStream_OEEE
_ZN4core48core__thread_local_write_to_string_output_streamEv
_ZN4core19LambdaListHandler_O21makeLambdaListHandlerEN7gctools9smart_ptrINS_6List_VEEES4_NS2_INS_3T_OEEE
_ZN4core25core__process_lambda_listEN7gctools9smart_ptrINS_6List_VEEENS1_INS_3T_OEEE
_ZN4core41core__process_single_dispatch_lambda_listEN7gctools9smart_ptrINS_6List_VEEE
_ZN4core31core__process_macro_lambda_listEN7gctools9smart_ptrINS_6List_VEEE
_ZN4core31core__canonicalize_declarationsEN7gctools9smart_ptrINS_6List_VEEE
_ZN4core15core__is_a_typeEN7gctools9smart_ptrINS_3T_OEEE
_ZN4core26core__mangledFunctionNamesEv
_ZN4core15core__set_badgeEN7gctools9smart_ptrINS_3T_OEEEm
_ZN4core15core__get_badgeEN7gctools9smart_ptrINS_3T_OEEE
_ZN4core36core__debug_invocation_history_frameEm
_ZN4core16core__magic_nameERKNSt3__112basic_stringIcNS0_11char_traitsIcEENS0_9allocatorIcEEEES8_
_ZN4core18core__magic_internERKNSt3__112basic_stringIcNS0_11char_traitsIcEENS0_9allocatorIcEEEES8_
_ZN4core18core__lispify_nameEN7gctools9smart_ptrINS_7Array_OEEE
_ZN4core20core__dump_class_idsEv
_ZN4core11cl__nreconcEN7gctools9smart_ptrINS_6List_VEEENS1_INS_3T_OEEE
_ZN4core13cl__revappendEN7gctools9smart_ptrINS_6List_VEEENS1_INS_3T_OEEE
_ZN4core9cl__nconcEN7gctools9smart_ptrINS_6List_VEEE
_ZN4core8cl__lastEN7gctools9smart_ptrINS_6List_VEEENS1_INS_9Integer_OEEE
_ZN4core12cl__listSTAREN7gctools9smart_ptrINS_7VaslistEEE
_ZN4core8cl__listEN7gctools9smart_ptrINS_3T_OEEE
_ZN4core12cl__nbutlastEN7gctools9smart_ptrINS_6List_VEEENS1_INS_9Integer_OEEE
_ZN4core11cl__butlastEN7gctools9smart_ptrINS_6List_VEEENS1_INS_9Integer_OEEE
_ZN4core13cl__copy_listEN7gctools9smart_ptrINS_6List_VEEE
_ZN4core10cl__nthcdrEN7gctools9smart_ptrINS_9Integer_OEEENS1_INS_6List_VEEE
_ZN4core7cl__nthEN7gctools9smart_ptrINS_9Integer_OEEENS1_INS_6List_VEEE
_ZN4core10cl__rassocEN7gctools9smart_ptrINS_3T_OEEENS1_INS_6List_VEEES3_S3_S3_
_ZN4core9ext__statEN7gctools9smart_ptrINS_3T_OEEE
_ZN4core10ext__fstatEi
_ZN4core11ext__getenvEN7gctools9smart_ptrINS_7Array_OEEE
_ZN4core16ext__fork_execvpEN7gctools9smart_ptrINS_6List_VEEENS1_INS_3T_OEEE
_ZN4core17ext__vfork_execvpEN7gctools9smart_ptrINS_6List_VEEENS1_INS_3T_OEEE
_ZN4core10core__pipeEv
_ZN4core13core__setpgrpEv
_ZN4core13core__setpgidEii
_ZN4core11ext__systemEN7gctools9smart_ptrINS_7Array_OEEE
_ZN4core11ext__setenvEN7gctools9smart_ptrINS_7Array_OEEES3_b
_ZN4core11core__mkdirEN7gctools9smart_ptrINS_3T_OEEES3_
_ZN4core30core__unix_get_local_time_zoneEv
_ZN4core31core__unix_daylight_saving_timeEN7gctools9smart_ptrINS_9Integer_OEEE
_ZN4core13cl__directoryEN7gctools9smart_ptrINS_3T_OEEES3_
_ZN4core15core__copy_fileEN7gctools9smart_ptrINS_3T_OEEES3_
_ZN4core11core__chmodEN7gctools9smart_ptrINS_3T_OEEES3_
_ZN4core11core__rmdirEN7gctools9smart_ptrINS_3T_OEEE
_ZN4core13core__mkdtempEN7gctools9smart_ptrINS_7Array_OEEE
_ZN4core11ext__rmtreeERKNSt3__112basic_stringIcNS0_11char_traitsIcEENS0_9allocatorIcEEEE
_ZN4core16core__mkstemp_fdEN7gctools9smart_ptrINS_7Array_OEEE
_ZN4core13core__mkstempEN7gctools9smart_ptrINS_7Array_OEEE
_ZN4core25cl__user_homedir_pathnameEN7gctools9smart_ptrINS_3T_OEEE
_ZN4core15cl__file_authorEN7gctools9smart_ptrINS_3T_OEEE
_ZN4core19cl__file_write_dateEN7gctools9smart_ptrINS_3T_OEEE
_ZN4core14cl__probe_fileEN7gctools9smart_ptrINS_3T_OEEE
_ZN4core15cl__delete_fileEN7gctools9smart_ptrINS_3T_OEEE
_ZN4core15cl__rename_fileEN7gctools9smart_ptrINS_3T_OEEES3_S3_
_ZN4core12cl__truenameEN7gctools9smart_ptrINS_3T_OEEE
_ZN4core19core__file_truenameEN7gctools9smart_ptrINS_3T_OEEES3_b
_ZN4core14core__readlinkEN7gctools9smart_ptrINS_7Array_OEEE
_ZN4core15core__file_kindEN7gctools9smart_ptrINS_3T_OEEEb
_ZN4core10ext__chdirEN7gctools9smart_ptrINS_3T_OEEES3_
_ZN4core13core__getppidEv
_ZN4core12core__getpidEv
_ZN4core13core__waitpidEN7gctools9smart_ptrINS_8Fixnum_IEEEbbb
_ZN4core17core__wifsignaledEN7gctools9smart_ptrINS_8Fixnum_IEEE
_ZN4core14core__wtermsigEN7gctools9smart_ptrINS_8Fixnum_IEEE
_ZN4core17core__wexitstatusEN7gctools9smart_ptrINS_8Fixnum_IEEE
_ZN4core15core__wifexitedEN7gctools9smart_ptrINS_8Fixnum_IEEE
_ZN4core19core__sigthreadmaskEN7gctools9smart_ptrINS_8Symbol_OEEENS1_INS_8Sigset_OEEENS1_INS_3T_OEEE
_ZN4core10core__waitEv
_ZN4core19core__fork_redirectEii
_ZN4core10core__forkEb
_ZN4core21core__enum_logical_orEN7gctools9smart_ptrINS_23SymbolToEnumConverter_OEEENS1_INS_6List_VEEE
_ZN4core28core__source_pos_info_columnEN7gctools9smart_ptrINS_3T_OEEE
_ZN4core28core__source_pos_info_linenoEN7gctools9smart_ptrINS_3T_OEEE
_ZN4core29core__source_pos_info_fileposEN7gctools9smart_ptrINS_3T_OEEE
_ZN4core33core__source_pos_info_file_handleEN7gctools9smart_ptrINS_3T_OEEE
_ZN4core28core__source_pos_info_unpackEN7gctools9smart_ptrINS_3T_OEEE
_ZN4core16core__file_scopeEN7gctools9smart_ptrINS_3T_OEEE
_ZN4core9cl__printEN7gctools9smart_ptrINS_3T_OEEES3_
_ZN4core9cl__prin1EN7gctools9smart_ptrINS_3T_OEEES3_
_ZN4core9cl__princEN7gctools9smart_ptrINS_3T_OEEES3_
_ZN4core10cl__pprintEN7gctools9smart_ptrINS_3T_OEEES3_
_ZN4core38core__print_unreadable_object_functionEN7gctools9smart_ptrINS_3T_OEEES3_S3_S3_S3_
_ZN4core9cl__writeEN7gctools9smart_ptrINS_3T_OEEES3_S3_S3_S3_S3_S3_S3_S3_S3_S3_S3_S3_S3_S3_S3_S3_
_ZN4core18core__write_objectEN7gctools9smart_ptrINS_3T_OEEES3_
_ZN4core18core__next_compareEN7gctools9smart_ptrINS_8Bignum_OEEES3_
_ZN4core15core__next_fsubExN7gctools9smart_ptrINS_8Bignum_OEEE
_ZN4core15core__next_faddEN7gctools9smart_ptrINS_8Bignum_OEEEx
_ZN4core14core__next_subEN7gctools9smart_ptrINS_8Bignum_OEEES3_
_ZN4core14core__next_addEN7gctools9smart_ptrINS_8Bignum_OEEES3_
_ZN4core15core__next_fgcdEN7gctools9smart_ptrINS_8Bignum_OEEEx
_ZN4core14core__next_gcdEN7gctools9smart_ptrINS_8Bignum_OEEES3_
_ZN4core20core__next_ftruncateEN7gctools9smart_ptrINS_8Bignum_OEEEx
_ZN4core19core__next_truncateEN7gctools9smart_ptrINS_8Bignum_OEEES3_
_ZN4core17core__mul_fixnumsExx
_ZN4core14core__next_mulEN7gctools9smart_ptrINS_8Bignum_OEEES3_
_ZN4core17core__next_rshiftEN7gctools9smart_ptrINS_8Bignum_OEEEx
_ZN4core17core__next_lshiftEN7gctools9smart_ptrINS_8Bignum_OEEEx
_ZN4core15core__next_fmulEN7gctools9smart_ptrINS_8Bignum_OEEEx
_ZN4core27core__next_primitive_stringEN7gctools9smart_ptrINS_8Bignum_OEEE
_ZN4core22core__next_from_stringERKNSt3__112basic_stringIcNS0_11char_traitsIcEENS0_9allocatorIcEEEE
_ZN4core22core__next_from_fixnumEx
_ZN4core8cl__loadEN7gctools9smart_ptrINS_3T_OEEES3_S3_S3_S3_S3_
_ZN4core25core__load_no_package_setEN7gctools9smart_ptrINS_3T_OEEES3_S3_S3_S3_S3_
_ZN4core17core__load_sourceEN7gctools9smart_ptrINS_3T_OEEEbbS3_
_ZN4core21core__get_float_trapsEv
_ZN4core29core__float_traps_supported_pEv
_ZN4core12cl__imagpartEN7gctools9smart_ptrINS_8Number_OEEE
_ZN4core12cl__realpartEN7gctools9smart_ptrINS_8Number_OEEE
_ZN4core11cl__complexEN7gctools9smart_ptrINS_6Real_OEEES3_
_ZN4core24cl__integer_decode_floatEN7gctools9smart_ptrINS_7Float_OEEE
_ZN4core19cl__float_precisionEN7gctools9smart_ptrINS_7Float_OEEE
_ZN4core16cl__float_digitsEN7gctools9smart_ptrINS_7Float_OEEE
_ZN4core14cl__float_signEN7gctools9smart_ptrINS_7Float_OEEES3_NS1_INS_3T_OEEE
_ZN4core15cl__scale_floatEN7gctools9smart_ptrINS_8Number_OEEES3_
_ZN4core16cl__decode_floatEN7gctools9smart_ptrINS_7Float_OEEE
_ZN4core7cl__remEN7gctools9smart_ptrINS_6Real_OEEES3_
_ZN4core7cl__modEN7gctools9smart_ptrINS_6Real_OEEES3_
_ZN4core9cl__roundEN7gctools9smart_ptrINS_6Real_OEEENS1_INS_3T_OEEE
_ZN4core12cl__truncateEN7gctools9smart_ptrINS_6Real_OEEENS1_INS_3T_OEEE
_ZN4core11cl__ceilingEN7gctools9smart_ptrINS_6Real_OEEENS1_INS_3T_OEEE
_ZN4core9cl__floorEN7gctools9smart_ptrINS_6Real_OEEENS1_INS_3T_OEEE
_ZN4core15cl__denominatorEN7gctools9smart_ptrINS_10Rational_OEEE
_ZN4core13cl__numeratorEN7gctools9smart_ptrINS_10Rational_OEEE
_ZN4core9cl__floatEN7gctools9smart_ptrINS_6Real_OEEENS1_INS_3T_OEEE
_ZN4core23core__integer_to_stringEN7gctools9smart_ptrINS_7StrNs_OEEENS1_INS_9Integer_OEEENS1_INS_8Fixnum_IEEEbb
_ZN4core20core__next_to_stringEN7gctools9smart_ptrINS_7StrNs_OEEENS1_INS_8Bignum_OEEENS1_INS_8Fixnum_IEEE
_ZN4core7cl__lcmEN7gctools9smart_ptrINS_6List_VEEE
_ZN4core7cl__gcdEN7gctools9smart_ptrINS_6List_VEEE
_ZN4core18core__num_op_atanhEd
_ZN4core18core__num_op_acoshEd
_ZN4core18core__num_op_asinhEd
_ZN4core17core__num_op_acosEd
_ZN4core17core__num_op_asinEd
_ZN4core20randomNumberNormal01Ev
_ZN4core14randomNumber01Ev
_ZN4core35seedRandomNumberGeneratorsUsingTimeEv
_ZN4core26seedRandomNumberGeneratorsEj
_ZN4core22cl__get_universal_timeEv
_ZN4core15cl__rationalizeEN7gctools9smart_ptrINS_6Real_OEEE
_ZN4core12cl__rationalEN7gctools9smart_ptrINS_6Real_OEEE
_ZN4core25ext__bits_to_double_floatEN7gctools9smart_ptrINS_9Integer_OEEE
_ZN4core25ext__double_float_to_bitsEN7gctools9smart_ptrINS_13DoubleFloat_OEEE
_ZN4core25ext__bits_to_single_floatEN7gctools9smart_ptrINS_8Fixnum_IEEE
_ZN4core25ext__single_float_to_bitsEN7gctools9smart_ptrINS_13SingleFloat_IEEE
_ZN4core21ext__float_infinity_pEN7gctools9smart_ptrINS_7Float_OEEE
_ZN4core16ext__float_nan_pEN7gctools9smart_ptrINS_7Float_OEEE
_ZN4core12cl__logcountEN7gctools9smart_ptrINS_9Integer_OEEE
_ZN4core18cl__integer_lengthEN7gctools9smart_ptrINS_9Integer_OEEE
_ZN4core11core__log1pEN7gctools9smart_ptrINS_8Number_OEEE
_ZN4core7cl__logEN7gctools9smart_ptrINS_8Number_OEEENS1_INS_3T_OEEE
_ZN4core8cl__atanEN7gctools9smart_ptrINS_8Number_OEEENS1_INS_3T_OEEE
_ZN4core8cl__exptEN7gctools9smart_ptrINS_8Number_OEEES3_
_ZN4core7cl__expEN7gctools9smart_ptrINS_8Number_OEEE
_ZN4core13cl__conjugateEN7gctools9smart_ptrINS_8Number_OEEE
_ZN4core8cl__tanhEN7gctools9smart_ptrINS_8Number_OEEE
_ZN4core8cl__coshEN7gctools9smart_ptrINS_8Number_OEEE
_ZN4core8cl__sinhEN7gctools9smart_ptrINS_8Number_OEEE
_ZN4core7cl__tanEN7gctools9smart_ptrINS_8Number_OEEE
_ZN4core7cl__cosEN7gctools9smart_ptrINS_8Number_OEEE
_ZN4core7cl__sinEN7gctools9smart_ptrINS_8Number_OEEE
_ZN4core8cl__sqrtEN7gctools9smart_ptrINS_8Number_OEEE
_ZN4core9core__nanEv
_ZN4core8cl___EQ_EN7gctools9smart_ptrINS_6List_VEEE
_ZN4core8cl___NE_EN7gctools9smart_ptrINS_7VaslistEEE
_ZN4core12two_arg__EQ_EN7gctools9smart_ptrINS_8Number_OEEES3_
_ZN4core8cl___GE_EN7gctools9smart_ptrINS_7VaslistEEE
_ZN4core8cl___LE_EN7gctools9smart_ptrINS_7VaslistEEE
_ZN4core8cl___GT_EN7gctools9smart_ptrINS_7VaslistEEE
_ZN4core8cl___LT_EN7gctools9smart_ptrINS_7VaslistEEE
_ZN4core12two_arg__GE_EN7gctools9smart_ptrINS_8Number_OEEES3_
_ZN4core12two_arg__GT_EN7gctools9smart_ptrINS_8Number_OEEES3_
_ZN4core12two_arg__LE_EN7gctools9smart_ptrINS_8Number_OEEES3_
_ZN4core12two_arg__LT_EN7gctools9smart_ptrINS_8Number_OEEES3_
_ZN4core12cl___DIVIDE_EN7gctools9smart_ptrINS_8Number_OEEENS1_INS_6List_VEEE
_ZN4core11cl___MINUS_EN7gctools9smart_ptrINS_8Number_OEEENS1_INS_6List_VEEE
_ZN4core11cl___TIMES_EN7gctools9smart_ptrINS_6List_VEEE
_ZN4core10cl___PLUS_EN7gctools9smart_ptrINS_6List_VEEE
_ZN4core13contagion_divEN7gctools9smart_ptrINS_8Number_OEEES3_
_ZN4core13contagion_mulEN7gctools9smart_ptrINS_8Number_OEEES3_
_ZN4core13contagion_subEN7gctools9smart_ptrINS_8Number_OEEES3_
_ZN4core13contagion_addEN7gctools9smart_ptrINS_8Number_OEEES3_
_ZN4core16two_arg__PLUS_FFExx
_ZN4core7cl__maxEN7gctools9smart_ptrINS_6Real_OEEENS1_INS_6List_VEEE
_ZN4core7cl__minEN7gctools9smart_ptrINS_6Real_OEEENS1_INS_6List_VEEE
_ZN4core27core__fixnum_number_of_bitsEv
_ZN4core39core__convert_overflow_result_to_bignumEN7gctools9smart_ptrINS_8Fixnum_IEEE
_ZN4core9cl__zeropEN7gctools9smart_ptrINS_8Number_OEEE
_ZN4core19cl__hash_table_testEN7gctools9smart_ptrINS_15HashTableBase_OEEE
_ZN4core31cl__hash_table_rehash_thresholdEN7gctools9smart_ptrINS_15HashTableBase_OEEE
_ZN4core26cl__hash_table_rehash_sizeEN7gctools9smart_ptrINS_15HashTableBase_OEEE
_ZN4core29core__hash_table_setf_gethashEN7gctools9smart_ptrINS_15HashTableBase_OEEENS1_INS_3T_OEEES5_
_ZN4core29core__hash_table_force_rehashEN7gctools9smart_ptrINS_11HashTable_OEEE
_ZN4core14core__gethash3EN7gctools9smart_ptrINS_3T_OEEES3_S3_
_ZN4core11cl__gethashEN7gctools9smart_ptrINS_3T_OEEENS1_INS_15HashTableBase_OEEES3_
_ZN4core19cl__hash_table_sizeEN7gctools9smart_ptrINS_15HashTableBase_OEEE
_ZN4core20cl__hash_table_countEN7gctools9smart_ptrINS_15HashTableBase_OEEE
_ZN4core11cl__remhashEN7gctools9smart_ptrINS_3T_OEEENS1_INS_15HashTableBase_OEEE
_ZN4core17core__hash_equalpEN7gctools9smart_ptrINS_6List_VEEE
_ZN4core16core__hash_equalEN7gctools9smart_ptrINS_6List_VEEE
_ZN4core14core__hash_eqlEN7gctools9smart_ptrINS_6List_VEEE
_ZN4core32core__hash_table_entry_deleted_pEN7gctools9smart_ptrINS_3T_OEEE
_ZN4core11cl__clrhashEN7gctools9smart_ptrINS_15HashTableBase_OEEE
_ZN4core11cl__maphashEN7gctools9smart_ptrINS_3T_OEEENS1_INS_15HashTableBase_OEEE
_ZN4core25core__hash_table_weaknessEN7gctools9smart_ptrINS_3T_OEEE
_ZN4core19cl__make_hash_tableEN7gctools9smart_ptrINS_3T_OEEENS1_INS_8Fixnum_IEEENS1_INS_8Number_OEEENS1_INS_6Real_OEEENS1_INS_8Symbol_OEEES3_S3_S3_
_ZN4core22core__hash_table_pairsEN7gctools9smart_ptrINS_15HashTableBase_OEEE
_ZN4core25core__make_small_multimapEv
_ZN4core20core__make_small_mapEv
_ZN4core15core__safe_reprEN7gctools9smart_ptrINS_3T_OEEE
_ZN4core25core__safe_lisp_backtraceEv
_ZN4core20core__safe_backtraceEv
_ZN4core20core__lookup_addressEN7gctools9smart_ptrINS_9Pointer_OEEE
_ZN4core22core__lowLevelDescribeEN7gctools9smart_ptrINS_3T_OEEE
_ZN4core41core__print_current_ihs_frame_environmentEv
_ZN4core26core__printCurrentIhsFrameEv
_ZN4core18core__gotoIhsFrameEi
_ZN4core17core__gotoIhsNextEv
_ZN4core17core__gotoIhsPrevEv
_ZN4core16core__gotoIhsTopEv
_ZN4core35core__dump_symbol_and_stackmap_infoEv
_ZN4core19core__frame_pointerEv
_ZN4core10core__btclEN7gctools9smart_ptrINS_3T_OEEEbbb
_ZN4core21core__call_with_frameEN7gctools9smart_ptrINS_10Function_OEEEb
_ZN4core25core__call_with_backtraceEN7gctools9smart_ptrINS_10Function_OEEEb
_ZN4core30core__call_with_stack_top_hintEN7gctools9smart_ptrINS_10Function_OEEE
_ZN4core33core__libunwind_backtrace_as_listEv
_ZN4core20core__maybe_demangleEN7gctools9smart_ptrINS_7Array_OEEE
_ZN4core35core__low_level_backtrace_with_argsEv
_ZN4core25core__low_level_backtraceEv
_ZN4core39core__ever_so_slightly_mangle_cxx_namesERKNSt3__112basic_stringIcNS0_11char_traitsIcEENS0_9allocatorIcEEEE
_ZN4core35core__start_debugger_with_backtraceEN7gctools9smart_ptrINS_3T_OEEE
_ZN4core29core__dynamic_library_handlesEv
_ZN4core19core__ihs_backtraceEN7gctools9smart_ptrINS_3T_OEEES3_
_ZN4core23core__list_from_va_listEN7gctools9smart_ptrINS_7VaslistEEE
_ZN4core14core__vaslistpEN7gctools9smart_ptrINS_3T_OEEE
_ZN4core17core__vaslist_popEN7gctools9smart_ptrINS_7VaslistEEE
_ZN4core20core__vaslist_lengthEN7gctools9smart_ptrINS_7VaslistEEE
_ZN4core20core__vaslist_rewindEN7gctools9smart_ptrINS_7VaslistEEE
_ZN4core27core__set_ihs_current_frameEi
_ZN4core23core__ihs_current_frameEv
_ZN4core13core__ihs_envEi
_ZN4core18core__ihs_argumentEii
_ZN4core19core__ihs_argumentsEi
_ZN4core13core__ihs_funEi
_ZN4core14core__ihs_nextEi
_ZN4core14core__ihs_prevEi
_ZN4core33core__ihs_search_for_next_visibleEii
_ZN4core13core__ihs_topEv
_ZN4core27core__ihs_backtrace_no_argsEv
_ZN4core17core__ihs_visibleEi
_ZN4core20core__dump_backtraceEN7gctools9smart_ptrINS_6List_VEEENS1_INS_3T_OEEEbbb
_ZN4core31core__backtrace_frame_to_streamEiN7gctools9smart_ptrINS_7Frame_OEEENS1_INS_3T_OEEEbb
_ZN4core24core__ihs_return_addressEi
_ZN4core28core__ihs_source_informationEi
_ZN4core25core__ihs_backtrace_frameEi
_ZN4core17core__ihs_boundedEi
_ZN4core24core__backtrace_frame_upEN7gctools9smart_ptrINS_7Frame_OEEE
_ZN4core26core__backtrace_frame_downEN7gctools9smart_ptrINS_7Frame_OEEE
_ZN4core29core__backtrace_frame_closureEN7gctools9smart_ptrINS_7Frame_OEEE
_ZN4core31core__backtrace_frame_argumentsEN7gctools9smart_ptrINS_7Frame_OEEE
_ZN4core42core__backtrace_frame_function_descriptionEN7gctools9smart_ptrINS_7Frame_OEEE
_ZN4core42core__backtrace_frame_function_end_addressEN7gctools9smart_ptrINS_7Frame_OEEE
_ZN4core44core__backtrace_frame_function_start_addressEN7gctools9smart_ptrINS_7Frame_OEEE
_ZN4core28core__backtrace_frame_offsetEN7gctools9smart_ptrINS_7Frame_OEEE
_ZN4core34core__backtrace_frame_base_pointerEN7gctools9smart_ptrINS_7Frame_OEEE
_ZN4core35core__backtrace_frame_function_nameEN7gctools9smart_ptrINS_7Frame_OEEE
_ZN4core30core__backtrace_frame_raw_nameEN7gctools9smart_ptrINS_7Frame_OEEE
_ZN4core36core__backtrace_frame_return_addressEN7gctools9smart_ptrINS_7Frame_OEEE
_ZN4core26core__backtrace_frame_typeEN7gctools9smart_ptrINS_7Frame_OEEE
_ZN4core29core__backtrace_frame_visibleEN7gctools9smart_ptrINS_7Frame_OEEE
_ZN4core18core__patch_objectEN7gctools9smart_ptrINS_9General_OEEENS1_INS_8Record_OEEE
_ZN4core25core__make_record_patcherEN7gctools9smart_ptrINS_3T_OEEE
_ZN4core10cl__randomEN7gctools9smart_ptrINS_8Number_OEEENS1_INS_13RandomState_OEEE
_ZN4core13RandomState_O4makeEN7gctools9smart_ptrINS_3T_OEEE
_ZN4core14core__makeTestEv
_ZN4core9core__takEiiibi
_ZN4core10core__ctakEiiibi
_ZN4core57core__character_string_that_fits_in_base_string_to_octetsEN7gctools9smart_ptrINS_3T_OEEE
_ZN4core27core__base_string_to_octetsEN7gctools9smart_ptrINS_3T_OEEE
_ZN4core19core__digest_sha256EN7gctools9smart_ptrINS_6List_VEEE
_ZN4core16core__digest_md5EN7gctools9smart_ptrINS_6List_VEEE
_ZN4core17core__digest_sha1EN7gctools9smart_ptrINS_6List_VEEE
_ZN4core17core__hmac_sha256EN7gctools9smart_ptrINS_22SimpleVector_byte8_t_OEEES3_
_ZN4core24core__hash256_hex_stringEN7gctools9smart_ptrINS_3T_OEEE
_ZN4core30core__function_source_pos_infoEN7gctools9smart_ptrINS_3T_OEEE
_ZN4core25ext__function_lambda_listEN7gctools9smart_ptrINS_3T_OEEE
_ZN4core39core__get_invocation_history_frame_nextEi
_ZN4core39core__get_invocation_history_frame_prevEi
_ZN4core34core__get_invocation_history_frameEi
_ZN4core38core__get_invocation_history_frame_topEv
_ZN4core41core__get_invocation_history_frame_searchEN7gctools9smart_ptrINS_3T_OEEENS1_INS_8Symbol_OEEE
_ZN4core32InvocationHistoryFrameIterator_O4makeExN7gctools9smart_ptrINS_3T_OEEE
_ZN4core10cl__sxhashEN7gctools9smart_ptrINS_3T_OEEE
_ZN4core11cl__type_ofEN7gctools9smart_ptrINS_3T_OEEE
_ZN4core20core__type_to_symbolEN7gctools9smart_ptrINS_3T_OEEE
_ZN4core10cl__gensymEN7gctools9smart_ptrINS_3T_OEEE
_ZN4core24core__sequence_start_endEN7gctools9smart_ptrINS_3T_OEEENS1_INS_8Fixnum_IEEES3_
_ZN4core10cl__appendEN7gctools9smart_ptrINS_7VaslistEEE
_ZN4core10cl__mapcanEN7gctools9smart_ptrINS_3T_OEEENS1_INS_6List_VEEE
_ZN4core10cl__mapconEN7gctools9smart_ptrINS_3T_OEEENS1_INS_6List_VEEE
_ZN4core8cl__maplEN7gctools9smart_ptrINS_3T_OEEENS1_INS_6List_VEEE
_ZN4core11cl__maplistEN7gctools9smart_ptrINS_3T_OEEENS1_INS_6List_VEEE
_ZN4core8cl__mapcEN7gctools9smart_ptrINS_3T_OEEENS1_INS_6List_VEEE
_ZN4core10cl__mapcarEN7gctools9smart_ptrINS_3T_OEEENS1_INS_6List_VEEE
_ZN4core17core__notany_listEN7gctools9smart_ptrINS_3T_OEEENS1_INS_6List_VEEE
_ZN4core15core__some_listEN7gctools9smart_ptrINS_3T_OEEENS1_INS_6List_VEEE
_ZN4core16core__every_listEN7gctools9smart_ptrINS_3T_OEEENS1_INS_6List_VEEE
_ZN4core30cl__read_preserving_whitespaceEN7gctools9smart_ptrINS_3T_OEEES3_S3_S3_
_ZN4core15core__fast_readEN7gctools9smart_ptrINS_3T_OEEES3_S3_S3_
_ZN4core8cl__readEN7gctools9smart_ptrINS_3T_OEEES3_S3_S3_
_ZN4core23cl__read_delimited_listEN7gctools9smart_ptrINS_11Character_IEEENS1_INS_3T_OEEES5_
_ZN4core15cl__fmakunboundEN7gctools9smart_ptrINS_3T_OEEE
_ZN4core11cl__fboundpEN7gctools9smart_ptrINS_3T_OEEE
_ZN4core15cl__fdefinitionEN7gctools9smart_ptrINS_3T_OEEE
_ZN4core10core__fsetEN7gctools9smart_ptrINS_3T_OEEENS1_INS_10Function_OEEES3_S3_S3_
_ZN4core12cl__class_ofEN7gctools9smart_ptrINS_3T_OEEE
_ZN4core8cl__nullEN7gctools9smart_ptrINS_3T_OEEE
_ZN4core12cl__identityEN7gctools9smart_ptrINS_3T_OEEE
_ZN4core13cl__constantpEN7gctools9smart_ptrINS_3T_OEEES3_
_ZN4core22core__symbol_constantpEN7gctools9smart_ptrINS_8Symbol_OEEE
_ZN4core17core__gdb_inspectEN7gctools9smart_ptrINS_7Array_OEEENS1_INS_3T_OEEE
_ZN4core20core__trap_executionEN7gctools9smart_ptrINS_3T_OEEE
_ZN4core9core__gdbEN7gctools9smart_ptrINS_3T_OEEE
_ZN4core21core__break_low_levelEN7gctools9smart_ptrINS_3T_OEEENS1_INS_6List_VEEE
_ZN4core7cl__ashEN7gctools9smart_ptrINS_9Integer_OEEES3_
_ZN4core22cl__special_operator_pEN7gctools9smart_ptrINS_8Symbol_OEEE
_ZN4core18cl__macro_functionEN7gctools9smart_ptrINS_8Symbol_OEEENS1_INS_3T_OEEE
_ZN4core25core__operator_shadowed_pEN7gctools9smart_ptrINS_3T_OEEES3_
_ZN4core19core__function_typeEN7gctools9smart_ptrINS_3T_OEEES3_
_ZN4core31core__setf_global_inline_statusEN7gctools9smart_ptrINS_3T_OEEEbS3_
_ZN4core30core__get_global_inline_statusEN7gctools9smart_ptrINS_3T_OEEES3_
_ZN4core24core__separate_pair_listEN7gctools9smart_ptrINS_6List_VEEE
_ZN4core27core__valid_function_name_pEN7gctools9smart_ptrINS_3T_OEEE
_ZN4core25core__function_block_nameEN7gctools9smart_ptrINS_3T_OEEE
_ZN4core15cl__values_listEN7gctools9smart_ptrINS_6List_VEEE
_ZN4core10cl__valuesEN7gctools9smart_ptrINS_7VaslistEEE
_ZN4core27core__smart_pointer_detailsEv
_ZN4core13core__unboundEv
_ZN4core13core__is_trueEN7gctools9smart_ptrINS_3T_OEEE
_ZN4core25core__describe_cxx_objectEN7gctools9smart_ptrINS_3T_OEEES3_
_ZN4core17ext__llvm_versionEv
_ZN4core24core__dump_tagged_fixnumEN7gctools9smart_ptrINS_3T_OEEE
_ZN4core24core__from_tagged_fixnumEN7gctools9smart_ptrINS_3T_OEEE
_ZN4core22core__to_tagged_fixnumEi
_ZN4core32core__all_registered_class_namesEv
_ZN4core39core__incomplete_next_higher_power_of_2EN7gctools9smart_ptrINS_8Fixnum_IEEE
_ZN4core22core__print_address_ofEN7gctools9smart_ptrINS_3T_OEEES3_
_ZN4core33core__setf_symbol_value_from_cellEN7gctools9smart_ptrINS_8Symbol_OEEENS1_INS_3T_OEEENS1_INS_6Cons_OEEE
_ZN4core7cl__setEN7gctools9smart_ptrINS_8Symbol_OEEENS1_INS_3T_OEEE
_ZN4core10core__argvEi
_ZN4core10core__argcEv
_ZN4core20cl__machine_instanceEv
_ZN4core19cl__machine_versionEv
_ZN4core16cl__machine_typeEv
_ZN4core20cl__software_versionEv
_ZN4core17cl__software_typeEv
_ZN4core33core__value_from_tagged_immediateEN7gctools9smart_ptrINS_3T_OEEE
_ZN4core42core__create_tagged_immediate_value_or_nilEN7gctools9smart_ptrINS_3T_OEEE
_ZN4core28core__lisp_implementation_idEv
_ZN4core31cl__lisp_implementation_versionEv
_ZN4core28cl__lisp_implementation_typeEv
_ZN4core17core__next_numberEv
_ZN4core25core__interpreter_symbolsEv
_ZN4core9cl__sleepEN7gctools9smart_ptrINS_6Real_OEEE
_ZN4core40core__verify_funcallable_instance_layoutEmm
_ZN4core29clos__interpret_dtree_programEN7gctools9smart_ptrINS_14SimpleVector_OEEENS1_INS_3T_OEEENS1_INS_7VaslistEEE
_ZN4core53clos__set_generic_function_compiled_dispatch_functionEN7gctools9smart_ptrINS_3T_OEEES3_
_ZN4core49clos__generic_function_compiled_dispatch_functionEN7gctools9smart_ptrINS_3T_OEEE
_ZN4core40clos__generic_function_interpreted_callsEN7gctools9smart_ptrINS_21FuncallableInstance_OEEE
_ZN4core36clos__setFuncallableInstanceFunctionEN7gctools9smart_ptrINS_3T_OEEES3_
_ZN4core36clos__getFuncallableInstanceFunctionEN7gctools9smart_ptrINS_3T_OEEE
_ZN4core46core__low_level_standard_generic_function_nameEN7gctools9smart_ptrINS_21FuncallableInstance_OEEE
_ZN4core39core__allocate_raw_funcallable_instanceEN7gctools9smart_ptrINS_10Instance_OEEENS1_INS_6Rack_OEEE
_ZN4core44core__allocate_funcallable_standard_instanceEN7gctools9smart_ptrINS_10Instance_OEEEm
_ZN4core24core__verify_rack_layoutEmm
_ZN4core28core__verify_instance_layoutEmm
_ZN4core19ext__class_unboundpEN7gctools9smart_ptrINS_13ClassHolder_OEEE
_ZN4core14ext__class_getEN7gctools9smart_ptrINS_13ClassHolder_OEEE
_ZN4core17core__has_creatorEN7gctools9smart_ptrINS_10Instance_OEEE
_ZN4core19core__class_creatorEN7gctools9smart_ptrINS_10Instance_OEEE
_ZN4core19core__name_of_classEN7gctools9smart_ptrINS_10Instance_OEEE
_ZN4core31core__class_stamp_for_instancesEN7gctools9smart_ptrINS_10Instance_OEEE
_ZN4core21core__class_new_stampEN7gctools9smart_ptrINS_10Instance_OEEENS1_INS_3T_OEEES5_
_ZN4core25clos__direct_superclassesEN7gctools9smart_ptrINS_10Instance_OEEE
_ZN4core23core__instance_rack_setEN7gctools9smart_ptrINS_10Instance_OEEENS1_INS_6Rack_OEEE
_ZN4core19core__instance_rackEN7gctools9smart_ptrINS_10Instance_OEEE
_ZN4core35core__allocate_raw_general_instanceEN7gctools9smart_ptrINS_10Instance_OEEENS1_INS_6Rack_OEEE
_ZN4core27core__allocate_raw_instanceEN7gctools9smart_ptrINS_10Instance_OEEENS1_INS_6Rack_OEEE
_ZN4core32core__allocate_standard_instanceEN7gctools9smart_ptrINS_10Instance_OEEEm
_ZN4core29core__class_slot_sanity_checkEv
_ZN4core24core__instance_class_setEN7gctools9smart_ptrINS_3T_OEEENS1_INS_10Instance_OEEE
_ZN4core14core__rack_setEN7gctools9smart_ptrINS_6Rack_OEEEmNS1_INS_3T_OEEE
_ZN4core14core__rack_refEN7gctools9smart_ptrINS_6Rack_OEEEm
_ZN4core15core__rack_sizeEN7gctools9smart_ptrINS_6Rack_OEEE
_ZN4core14core__rack_sigEN7gctools9smart_ptrINS_6Rack_OEEE
_ZN4core19core__stamp_of_rackEN7gctools9smart_ptrINS_6Rack_OEEE
_ZN4core15core__make_rackEmN7gctools9smart_ptrINS_3T_OEEES3_S3_
_ZN4core20core__object_addressEN7gctools9smart_ptrINS_3T_OEEE
_ZN4core26core__print_object_addressEN7gctools9smart_ptrINS_3T_OEEE
_ZN4core11core__call4Eiiii
_ZN4core23core__uninstall_sigchldEv
_ZN4core21core__install_sigchldEv
_ZN4core24core__decf_sigchld_countEv
_ZN4core19core__sigchld_countEv
_ZN4core23core__ltvc_write_objectEN7gctools9smart_ptrINS_3T_OEEES3_S3_m
_ZN4core23core__ltvc_write_doubleEN7gctools9smart_ptrINS_3T_OEEES3_m
_ZN4core22core__ltvc_write_floatEN7gctools9smart_ptrINS_3T_OEEES3_m
_ZN4core23core__ltvc_write_bignumEN7gctools9smart_ptrINS_3T_OEEES3_m
_ZN4core23core__ltvc_write_stringEN7gctools9smart_ptrINS_3T_OEEES3_m
_ZN4core23core__ltvc_write_size_tEN7gctools9smart_ptrINS_3T_OEEES3_m
_ZN4core21core__ltvc_write_charEN7gctools9smart_ptrINS_3T_OEEES3_m
_ZN4core20core__handle_creatorEN7gctools9smart_ptrINS_3T_OEEE
_ZN4core24core__make_builtin_classEN7gctools9smart_ptrINS_3T_OEEE
_ZN4core18core__run_init_mlfEN7gctools9smart_ptrINS_3T_OEEE
_ZN4core18core__run_make_mlfEN7gctools9smart_ptrINS_3T_OEEE
_ZN4core18core__run_functionEN7gctools9smart_ptrINS_3T_OEEE
_ZN4core33core__declared_global_notinline_pEN7gctools9smart_ptrINS_3T_OEEE
_ZN4core30core__declared_global_inline_pEN7gctools9smart_ptrINS_3T_OEEE
_ZN4core20core__progv_functionEN7gctools9smart_ptrINS_6List_VEEES3_NS1_INS_10Function_OEEE
_ZN4core20core__throw_functionEN7gctools9smart_ptrINS_3T_OEEES3_
_ZN4core20core__catch_functionEN7gctools9smart_ptrINS_3T_OEEENS1_INS_10Function_OEEE
_ZN4core28core__multiple_value_funcallEN7gctools9smart_ptrINS_10Function_OEEENS1_INS_6List_VEEE
_ZN4core21core__funwind_protectEN7gctools9smart_ptrINS_3T_OEEES3_
_ZN3ext11ext__getcwdEv
_ZN4core30core__call_with_variable_boundEN7gctools9smart_ptrINS_8Symbol_OEEENS1_INS_3T_OEEENS1_INS_10Function_OEEE
_ZN4core39compiler__implicit_compile_hook_defaultEN7gctools9smart_ptrINS_3T_OEEES3_
_ZN4core12core__dladdrEN7gctools9smart_ptrINS_9Pointer_OEEE
_ZN4core27core__call_dl_main_functionEN7gctools9smart_ptrINS_9Pointer_OEEE
_ZN4core11core__dlsymEN7gctools9smart_ptrINS_3T_OEEENS1_INS_7Array_OEEE
_ZN4core12core__dlopenEN7gctools9smart_ptrINS_3T_OEEE
_ZN4core17core__load_binaryEN7gctools9smart_ptrINS_3T_OEEES3_S3_S3_
_ZN4core21core__startup_linkageEmN7gctools9smart_ptrINS_3T_OEEE
_ZN4core36core__startup_linkage_shutdown_namesEmN7gctools9smart_ptrINS_3T_OEEE
_ZN4core27core__load_binary_directoryEN7gctools9smart_ptrINS_3T_OEEES3_S3_S3_
_ZN4core17core__unpack_fasoEN7gctools9smart_ptrINS_3T_OEEE
_ZN4core19core__describe_fasoEN7gctools9smart_ptrINS_3T_OEEE
_ZN4core15core__load_fasoEN7gctools9smart_ptrINS_3T_OEEES3_S3_S3_
_ZN4core17core__load_fasobcEN7gctools9smart_ptrINS_3T_OEEES3_S3_S3_
_ZN4core17core__load_fasollEN7gctools9smart_ptrINS_3T_OEEES3_S3_S3_
_ZN4core21core__link_faso_filesEN7gctools9smart_ptrINS_3T_OEEENS1_INS_6List_VEEEb
_ZN4core16core__write_fasoEN7gctools9smart_ptrINS_3T_OEEENS1_INS_6List_VEEES3_
_ZN4core28core__startup_image_pathnameEc
_ZN4core17core__mangle_nameEN7gctools9smart_ptrINS_8Symbol_OEEEb
_ZN4core11core__rdtscEv
_ZN4core18core__help_bootingEv
_ZN4core23core__test_simple_errorEN7gctools9smart_ptrINS_3T_OEEE
_ZN4core30core__startup_functions_invokeEN7gctools9smart_ptrINS_6List_VEEE
_ZN4core25core__trigger_dtrace_stopEv
_ZN4core26core__trigger_dtrace_startEN7gctools9smart_ptrINS_3T_OEEE
_ZN4core27core__next_startup_positionEv
_ZN4core30core__next_jit_compile_counterEv
_ZN4core36core__update_max_jit_compile_counterEm
_ZN4core29core__get_jit_compile_counterEv
_ZN4core13WeakPointer_O4makeEN7gctools9smart_ptrINS_3T_OEEE
_ZN4core17core__weak_rehashEN7gctools9smart_ptrINS_18WeakKeyHashTable_OEEENS1_INS_3T_OEEE
_ZN4core16core__weak_splatEN7gctools9smart_ptrINS_18WeakKeyHashTable_OEEENS1_INS_8Fixnum_IEEE
_ZN4core18core__weak_clrhashEN7gctools9smart_ptrINS_18WeakKeyHashTable_OEEE
_ZN4core18core__weak_remhashEN7gctools9smart_ptrINS_18WeakKeyHashTable_OEEENS1_INS_3T_OEEE
_ZN4core23core__weak_setf_gethashEN7gctools9smart_ptrINS_3T_OEEENS1_INS_18WeakKeyHashTable_OEEES3_
_ZN4core18core__weak_gethashEN7gctools9smart_ptrINS_3T_OEEENS1_INS_18WeakKeyHashTable_OEEES3_
_ZN4core30core__make_weak_key_hash_tableEN7gctools9smart_ptrINS_8Fixnum_IEEE
_ZN4core33core__dump_debug_ihs_shadow_stackEv
_ZN4core27core__sharp_equal_wrapper_pEN7gctools9smart_ptrINS_3T_OEEE
_ZN4core24make_sharp_equal_wrapperEN7gctools9smart_ptrINS_3T_OEEE
_ZN4core17core__run_creatorEN7gctools9smart_ptrINS_9Creator_OEEE
_ZN4core24core__closure_slots_dumpEN7gctools9smart_ptrINS_9Closure_OEEE
_ZN4core17core__closure_refEN7gctools9smart_ptrINS_9Closure_OEEEm
_ZN4core20core__closure_lengthEN7gctools9smart_ptrINS_9Closure_OEEE
_ZN4core29core__closure_with_slots_sizeEm
_ZN4core38core__set_function_description_addressEN7gctools9smart_ptrINS_10Function_OEEENS1_INS_9Pointer_OEEE
_ZN4core31core__interpreted_closure_callsEv
_ZN4core30core__interpreted_closure_formEN7gctools9smart_ptrINS_18ClosureWithSlots_OEEE
_ZN4core31core__verify_global_entry_pointEN7gctools9smart_ptrINS_3T_OEEE
_ZN4core31core__verify_closure_with_slotsEN7gctools9smart_ptrINS_3T_OEEE
_ZN4core24core__function_docstringEN7gctools9smart_ptrINS_10Function_OEEE
_ZN4core29core__dumpFunctionDescriptionEN7gctools9smart_ptrINS_3T_OEEE
_ZN4core45core__set_LocalEntryPoint_entry_point_indicesEN7gctools9smart_ptrINS_26LocalEntryPointGenerator_OEEENS1_INS_3T_OEEE
_ZN4core46core__set_GlobalEntryPoint_entry_point_indicesEN7gctools9smart_ptrINS_27GlobalEntryPointGenerator_OEEENS1_INS_3T_OEEE
_ZN4core50core__LocalEntryPointGenerator_entry_point_indicesEN7gctools9smart_ptrINS_26LocalEntryPointGenerator_OEEE
_ZN4core51core__GlobalEntryPointGenerator_entry_point_indicesEN7gctools9smart_ptrINS_27GlobalEntryPointGenerator_OEEE
_ZN4core41core__EntryPointBase_function_descriptionEN7gctools9smart_ptrINS_16EntryPointBase_OEEE
_ZN4core33core__FunctionDescription_fileposEN7gctools9smart_ptrINS_21FunctionDescription_OEEE
_ZN4core32core__FunctionDescription_columnEN7gctools9smart_ptrINS_21FunctionDescription_OEEE
_ZN4core32core__FunctionDescription_linenoEN7gctools9smart_ptrINS_21FunctionDescription_OEEE
_ZN4core34core__FunctionDescription_declaresEN7gctools9smart_ptrINS_21FunctionDescription_OEEE
_ZN4core35core__FunctionDescription_docstringEN7gctools9smart_ptrINS_21FunctionDescription_OEEE
_ZN4core36core__FunctionDescription_lambdaListEN7gctools9smart_ptrINS_21FunctionDescription_OEEE
_ZN4core38core__FunctionDescription_functionNameEN7gctools9smart_ptrINS_21FunctionDescription_OEEE
_ZN4core40core__FunctionDescription_sourcePathnameEN7gctools9smart_ptrINS_21FunctionDescription_OEEE
_ZN4core29core__makeFunctionDescriptionEN7gctools9smart_ptrINS_3T_OEEES3_S3_S3_S3_iii
_ZN4core34core__makeLocalEntryPointGeneratorEN7gctools9smart_ptrINS_21FunctionDescription_OEEENS1_INS_3T_OEEE
_ZN4core35core__makeGlobalEntryPointGeneratorEN7gctools9smart_ptrINS_21FunctionDescription_OEEENS1_INS_3T_OEEE
_ZN4core42core__aclasp_list_of_all_special_operatorsEv
_ZN4core29core__interpret_eval_with_envEN7gctools9smart_ptrINS_3T_OEEES3_
_ZN4core24core__evaluate_verbosityEN7gctools9smart_ptrINS_8Fixnum_IEEE
_ZN4core20core__evaluate_depthEv
_ZN4core41core__classify_let_variables_and_declaresEN7gctools9smart_ptrINS_6List_VEEES3_
_ZN4core17ext__symbol_macroEN7gctools9smart_ptrINS_8Symbol_OEEENS1_INS_3T_OEEE
_ZN4core25core__extract_lambda_nameEN7gctools9smart_ptrINS_6List_VEEENS1_INS_3T_OEEE
_ZN4core39core__extract_dump_module_from_declaresEN7gctools9smart_ptrINS_6List_VEEE
_ZN4core39core__extract_lambda_name_from_declaresEN7gctools9smart_ptrINS_6List_VEEENS1_INS_3T_OEEE
_ZN4core26core__process_declarationsEN7gctools9smart_ptrINS_6List_VEEENS1_INS_3T_OEEE
_ZN4core24core__coerce_to_functionEN7gctools9smart_ptrINS_3T_OEEE
_ZN4core11cl__funcallEN7gctools9smart_ptrINS_3T_OEEENS1_INS_7VaslistEEE
_ZN4core15core__interpretEN7gctools9smart_ptrINS_3T_OEEES3_
_ZN4core8cl__evalEN7gctools9smart_ptrINS_3T_OEEE
_ZN4core12core__apply4EN7gctools9smart_ptrINS_10Function_OEEENS1_INS_3T_OEEES5_S5_S5_S5_NS1_INS_7VaslistEEE
_ZN4core12core__apply3EN7gctools9smart_ptrINS_10Function_OEEENS1_INS_3T_OEEES5_S5_S5_
_ZN4core12core__apply2EN7gctools9smart_ptrINS_10Function_OEEENS1_INS_3T_OEEES5_S5_
_ZN4core12core__apply1EN7gctools9smart_ptrINS_10Function_OEEENS1_INS_3T_OEEES5_
_ZN4core12core__apply0EN7gctools9smart_ptrINS_10Function_OEEENS1_INS_3T_OEEE
_ZN4core9cl__applyEN7gctools9smart_ptrINS_3T_OEEENS1_INS_7VaslistEEE
_ZN4core36core__compile_form_and_eval_with_envEN7gctools9smart_ptrINS_3T_OEEES3_S3_S3_S3_
_ZN4core31core__verify_value_frame_layoutEmmm
_ZN4core27SymbolMacroletEnvironment_O4makeEN7gctools9smart_ptrINS_3T_OEEE
_ZN4core21MacroletEnvironment_O4makeEN7gctools9smart_ptrINS_3T_OEEE
_ZN4core20TagbodyEnvironment_O4makeEN7gctools9smart_ptrINS_3T_OEEE
_ZN4core30FunctionContainerEnvironment_O4makeEN7gctools9smart_ptrINS_3T_OEEES4_S4_
_ZN4core18CatchEnvironment_O4makeEN7gctools9smart_ptrINS_3T_OEEE
_ZN4core18BlockEnvironment_O4makeEN7gctools9smart_ptrINS_8Symbol_OEEENS2_INS_3T_OEEE
_ZN4core26UnwindProtectEnvironment_O4makeEN7gctools9smart_ptrINS_6List_VEEENS2_INS_3T_OEEE
_ZN4core26FunctionValueEnvironment_O16createForEntriesEiN7gctools9smart_ptrINS_3T_OEEE
_ZN4core40core__ValueEnvironment_nonSpecialSymbolsEN7gctools9smart_ptrINS_18ValueEnvironment_OEEE
_ZN4core18ValueEnvironment_O30createForLocallySpecialEntriesEN7gctools9smart_ptrINS_6List_VEEENS2_INS_3T_OEEE
_ZN4core18ValueEnvironment_O24createForNumberOfEntriesEiN7gctools9smart_ptrINS_3T_OEEEb
_ZN4core18ValueEnvironment_O26createForLambdaListHandlerEN7gctools9smart_ptrINS_19LambdaListHandler_OEEENS2_INS_3T_OEEE
_ZN4core45core__calculateRuntimeVisibleEnvironmentDepthEN7gctools9smart_ptrINS_3T_OEEES3_
_ZN4core41core__find_function_container_environmentEN7gctools9smart_ptrINS_3T_OEEE
_ZN4core22core__environment_dumpEN7gctools9smart_ptrINS_3T_OEEE
_ZN4core13Environment_O31clasp_currentVisibleEnvironmentEN7gctools9smart_ptrINS_3T_OEEEb
_ZN4core33core__findValueEnvironmentAtDepthEN7gctools9smart_ptrINS_3T_OEEEi
_ZN4core25core__runtime_environmentEN7gctools9smart_ptrINS_3T_OEEE
_ZN4core27core__environment_type_listEN7gctools9smart_ptrINS_3T_OEEE
_ZN4core22core__environment_listEN7gctools9smart_ptrINS_3T_OEEE
_ZN4core34core__environment_activation_frameEN7gctools9smart_ptrINS_3T_OEEE
_ZN4core28core__lexical_macro_functionEN7gctools9smart_ptrINS_3T_OEEES3_
_ZN4core22core__lexical_functionEN7gctools9smart_ptrINS_3T_OEEES3_
_ZN4core30core__environment_debug_valuesEN7gctools9smart_ptrINS_3T_OEEE
_ZN4core29core__environment_debug_namesEN7gctools9smart_ptrINS_3T_OEEE
_ZN4core24core__environment_lengthEN7gctools9smart_ptrINS_3T_OEEE
_ZN4core33core__classify_return_from_symbolEN7gctools9smart_ptrINS_3T_OEEENS1_INS_8Symbol_OEEE
_ZN4core9cl__listpEN7gctools9smart_ptrINS_3T_OEEE
_ZN4core14cl__characterpEN7gctools9smart_ptrINS_3T_OEEE
_ZN4core9cl__conspEN7gctools9smart_ptrINS_3T_OEEE
_ZN4core8cl__atomEN7gctools9smart_ptrINS_3T_OEEE
_ZN4core8cl__endpEN7gctools9smart_ptrINS_3T_OEEE
_ZN4core13core__fixnumpEN7gctools9smart_ptrINS_3T_OEEE
_ZN4core11cl__symbolpEN7gctools9smart_ptrINS_3T_OEEE
_ZN4core9cl__equalEN7gctools9smart_ptrINS_3T_OEEES3_
_ZN4core20core__eql_underlyingEN7gctools9smart_ptrINS_3T_OEEES3_
_ZN4core7cl__eqlEN7gctools9smart_ptrINS_3T_OEEES3_
_ZN4core6cl__eqEN7gctools9smart_ptrINS_3T_OEEES3_
_ZN4core19core__copy_subarrayEN7gctools9smart_ptrINS_7Array_OEEENS1_INS_8Fixnum_IEEES3_S5_S5_
_ZN4core12clasp_negateEN7gctools9smart_ptrINS_8Number_OEEE
_ZN4core12clasp_signumEN7gctools9smart_ptrINS_8Number_OEEE
_ZN4core9clasp_absEN7gctools9smart_ptrINS_8Number_OEEE
_ZN4core10clasp_oddpEN7gctools9smart_ptrINS_9Integer_OEEE
_ZN4core11clasp_evenpEN7gctools9smart_ptrINS_9Integer_OEEE
_ZN4core12clasp_minuspEN7gctools9smart_ptrINS_6Real_OEEE
_ZN4core11clasp_pluspEN7gctools9smart_ptrINS_6Real_OEEE
_ZN4core6oTenthEN7gctools9smart_ptrINS_3T_OEEE
_ZN4core6oNinthEN7gctools9smart_ptrINS_3T_OEEE
_ZN4core7oEighthEN7gctools9smart_ptrINS_3T_OEEE
_ZN4core8oSeventhEN7gctools9smart_ptrINS_3T_OEEE
_ZN4core6oSixthEN7gctools9smart_ptrINS_3T_OEEE
_ZN4core6oFifthEN7gctools9smart_ptrINS_3T_OEEE
_ZN4core7oFourthEN7gctools9smart_ptrINS_3T_OEEE
_ZN4core6oThirdEN7gctools9smart_ptrINS_3T_OEEE
_ZN4core7oSecondEN7gctools9smart_ptrINS_3T_OEEE
_ZN4core6oFirstEN7gctools9smart_ptrINS_3T_OEEE
_ZN4core7oCddddrEN7gctools9smart_ptrINS_3T_OEEE
_ZN4core7oCddadrEN7gctools9smart_ptrINS_3T_OEEE
_ZN4core7oCdaddrEN7gctools9smart_ptrINS_3T_OEEE
_ZN4core7oCdaadrEN7gctools9smart_ptrINS_3T_OEEE
_ZN4core7oCadddrEN7gctools9smart_ptrINS_3T_OEEE
_ZN4core7oCadadrEN7gctools9smart_ptrINS_3T_OEEE
_ZN4core7oCaaddrEN7gctools9smart_ptrINS_3T_OEEE
_ZN4core7oCaaadrEN7gctools9smart_ptrINS_3T_OEEE
_ZN4core7oCdddarEN7gctools9smart_ptrINS_3T_OEEE
_ZN4core7oCddaarEN7gctools9smart_ptrINS_3T_OEEE
_ZN4core7oCdadarEN7gctools9smart_ptrINS_3T_OEEE
_ZN4core7oCdaaarEN7gctools9smart_ptrINS_3T_OEEE
_ZN4core7oCaddarEN7gctools9smart_ptrINS_3T_OEEE
_ZN4core7oCadaarEN7gctools9smart_ptrINS_3T_OEEE
_ZN4core7oCaadarEN7gctools9smart_ptrINS_3T_OEEE
_ZN4core7oCaaaarEN7gctools9smart_ptrINS_3T_OEEE
_ZN4core6oCdddrEN7gctools9smart_ptrINS_3T_OEEE
_ZN4core6oCddarEN7gctools9smart_ptrINS_3T_OEEE
_ZN4core6oCdadrEN7gctools9smart_ptrINS_3T_OEEE
_ZN4core6oCdaarEN7gctools9smart_ptrINS_3T_OEEE
_ZN4core6oCaddrEN7gctools9smart_ptrINS_3T_OEEE
_ZN4core6oCadarEN7gctools9smart_ptrINS_3T_OEEE
_ZN4core6oCaadrEN7gctools9smart_ptrINS_3T_OEEE
_ZN4core6oCaaarEN7gctools9smart_ptrINS_3T_OEEE
_ZN4core5oCddrEN7gctools9smart_ptrINS_3T_OEEE
_ZN4core5oCdarEN7gctools9smart_ptrINS_3T_OEEE
_ZN4core5oCadrEN7gctools9smart_ptrINS_3T_OEEE
_ZN4core5oCaarEN7gctools9smart_ptrINS_3T_OEEE
_ZN4core8cl__restEN7gctools9smart_ptrINS_6List_VEEE
_ZN4core4oCdrEN7gctools9smart_ptrINS_3T_OEEE
_ZN4core4oCarEN7gctools9smart_ptrINS_3T_OEEE
_ZN2mp28mp__check_pending_interruptsEv
_ZN2mp36mp__process_initial_special_bindingsEN7gctools9smart_ptrINS_9Process_OEEE
_ZN2mp33mp__copy_default_special_bindingsEv
_ZN2mp32mp__push_default_special_bindingEN7gctools9smart_ptrIN4core8Symbol_OEEENS1_INS2_3T_OEEE
_ZN2mp32mp__condition_variable_broadcastEN7gctools9smart_ptrINS_19ConditionVariable_OEEE
_ZN2mp29mp__condition_variable_signalEN7gctools9smart_ptrINS_19ConditionVariable_OEEE
_ZN2mp32mp__condition_variable_timedwaitEN7gctools9smart_ptrINS_19ConditionVariable_OEEENS1_INS_7Mutex_OEEEd
_ZN2mp27mp__condition_variable_waitEN7gctools9smart_ptrINS_19ConditionVariable_OEEENS1_INS_7Mutex_OEEE
_ZN2mp27mp__make_condition_variableEN7gctools9smart_ptrIN4core3T_OEEE
_ZN2mp14mp__lock_countEN7gctools9smart_ptrINS_7Mutex_OEEE
_ZN2mp20mp__recursive_lock_pEN7gctools9smart_ptrINS_7Mutex_OEEE
_ZN2mp15mp__giveup_lockEN7gctools9smart_ptrINS_7Mutex_OEEE
_ZN2mp12mp__get_lockEN7gctools9smart_ptrINS_7Mutex_OEEEb
_ZN2mp14mp__mutex_nameEN7gctools9smart_ptrINS_7Mutex_OEEE
_ZN2mp24mp__PERCENTabort_processEN7gctools9smart_ptrIN4core3T_OEEE
_ZN2mp16mp__exit_processEN7gctools9smart_ptrIN4core6List_VEEE
_ZN2mp16mp__process_killEN7gctools9smart_ptrINS_9Process_OEEE
_ZN2mp21mp__interrupt_processEN7gctools9smart_ptrINS_9Process_OEEENS1_IN4core3T_OEEE
_ZN2mp16mp__process_joinEN7gctools9smart_ptrINS_9Process_OEEE
_ZN2mp17mp__process_yieldEv
_ZN2mp18mp__process_resumeEN7gctools9smart_ptrINS_9Process_OEEE
_ZN2mp19mp__process_suspendEN7gctools9smart_ptrINS_9Process_OEEE
_ZN2mp16mp__suspend_loopEv
_ZN2mp20mp__process_active_pEN7gctools9smart_ptrINS_9Process_OEEE
_ZN2mp13mp__thread_idEN7gctools9smart_ptrINS_9Process_OEEE
_ZN2mp16mp__process_nameEN7gctools9smart_ptrINS_9Process_OEEE
_ZN2mp17mp__all_processesEv
_ZN2mp24mp__process_run_functionEN7gctools9smart_ptrIN4core3T_OEEES4_NS1_INS2_6List_VEEE
_ZN2mp17mp__process_startEN7gctools9smart_ptrINS_9Process_OEEE
_ZN2mp14mp__lock_ownerEN7gctools9smart_ptrINS_7Mutex_OEEE
_ZN2mp17mp__process_phaseEN7gctools9smart_ptrINS_9Process_OEEE
_ZN2mp24mp__process_phase_stringEN7gctools9smart_ptrINS_9Process_OEEE
_ZN2mp17mp__shared_unlockEN7gctools9smart_ptrINS_13SharedMutex_OEEE
_ZN2mp15mp__shared_lockEN7gctools9smart_ptrINS_13SharedMutex_OEEE
_ZN2mp16mp__write_unlockEN7gctools9smart_ptrINS_13SharedMutex_OEEEb
_ZN2mp18mp__write_try_lockEN7gctools9smart_ptrINS_13SharedMutex_OEEEb
_ZN2mp14mp__write_lockEN7gctools9smart_ptrINS_13SharedMutex_OEEEb
_ZN10asttooling34ast_tooling__parse_dynamic_matcherERKNSt3__112basic_stringIcNS0_11char_traitsIcEENS0_9allocatorIcEEEE
_ZN10asttooling57ast_tooling__wrapped_JSONCompilationDatabase_loadFromFileEN7gctools9smart_ptrIN4core3T_OEEENS1_INS2_8Symbol_OEEE
_ZN10asttooling26ast_tooling__getIncludeLocERKN5clang11PresumedLocE
_ZN10asttooling22ast_tooling__getColumnERKN5clang11PresumedLocE
_ZN10asttooling20ast_tooling__getLineERKN5clang11PresumedLocE
_ZN10asttooling36ast_tooling__PresumedLoc_getFilenameERKN5clang11PresumedLocE
_ZN10asttooling22ast_tooling__isInvalidERKN5clang11PresumedLocE
_ZN10asttooling20ast_tooling__isValidERKN5clang11PresumedLocE
_ZN10asttooling26ast_tooling__printToStringERKN5clang14SourceLocationERKNS0_13SourceManagerE
_ZN10asttooling21ast_tooling__isFileIDERKN5clang14SourceLocationE
_ZN10asttooling26ast_tooling__testDerivableEPN5clang12ast_matchers11MatchFinder13MatchCallbackE
_ZN10asttooling31ast_tooling__clangVersionStringEv
_ZN10asttooling35ast_tooling__intern_matcher_keywordERKNSt3__112basic_stringIcNS0_11char_traitsIcEENS0_9allocatorIcEEEE
_ZN10asttooling29ast_tooling__fix_matcher_nameERKNSt3__112basic_stringIcNS0_11char_traitsIcEENS0_9allocatorIcEEEE
_ZN10asttooling22cast__getTypePtrOrNullEN5clang8QualTypeE
_ZN10asttooling22cast__getCanonicalTypeEN5clang8QualTypeE
_ZN10asttooling17cast__isCanonicalEN5clang8QualTypeE
_ZN10asttooling17cast__getAsStringEN5clang8QualTypeE
_ZN10asttooling18cast__makeQualTypeEPN5clang4TypeE
_ZN10asttooling25cast__makeQualTypeDefaultEv
_ZN10asttooling27ast_tooling__makeAstVisitorEN7gctools9smart_ptrIN4core3T_OEEE
_ZN5llvmo19llvm_sys__clasp_jitEv
_ZN5llvmo17llvm_sys__viewCFGEN7gctools9smart_ptrIN4core3T_OEEES4_
_ZN5llvmo13dump_functionEN7gctools9smart_ptrINS_10Function_OEEENS1_IN4core3T_OEEE
_ZN5llvmo11dump_moduleEN7gctools9smart_ptrINS_8Module_OEEENS1_IN4core3T_OEEE
_ZN5llvmo35llvm_sys__getOrCreateExternalGlobalEN7gctools9smart_ptrINS_8Module_OEEERKNSt3__112basic_stringIcNS4_11char_traitsIcEENS4_9allocatorIcEEEENS1_INS_6Type_OEEEN4llvm11GlobalValue12LinkageTypesE
_ZN5llvmo41llvm_sys__throwIfMismatchedStructureSizesEN7gctools9smart_ptrIN4core8Fixnum_IEEES4_S4_S4_S4_S4_S4_NS0_7NilableIS4_EENS1_INS2_3T_OEEES8_S8_S8_
_ZN5llvmo31llvm_sys__cxxDataStructuresInfoEv
_ZN5llvmo19llvm_sys__tag_testsEv
_ZN5llvmo26llvm_sys__mangleSymbolNameEN7gctools9smart_ptrIN4core7Array_OEEE
_ZN5llvmo22llvm_sys__load_bitcodeEN7gctools9smart_ptrIN4core10Pathname_OEEEbbNS1_INS2_3T_OEEEm
_ZN5llvmo25llvm_sys__load_bitcode_llEN7gctools9smart_ptrIN4core10Pathname_OEEEbbNS1_INS2_3T_OEEEm
_ZN5llvmo17llvm_sys__load_irEN7gctools9smart_ptrIN4core3T_OEEEbbS4_S4_
_ZN5llvmo13describe_codeEv
_ZN5llvmo39total_memory_allocated_for_object_filesEv
_ZN5llvmo22number_of_object_filesEv
_ZN5llvmo20release_object_filesEv
_ZN5llvmo35object_file_for_instruction_pointerEPvb
_ZN5llvmo29object_file_sectioned_addressEPvN7gctools9smart_ptrINS_12ObjectFile_OEEEb
_ZN5llvmo33llvm_sys__set_current_debug_typesEN7gctools9smart_ptrIN4core6List_VEEE
_ZN5llvmo24llvm_sys__make_clasp_jitEv
_ZN5llvmo35llvm_sys__jitFinalizeRunCxxFunctionEN7gctools9smart_ptrINS_10ClaspJIT_OEEENS1_INS_10JITDylib_OEEERKNSt3__112basic_stringIcNS6_11char_traitsIcEENS6_9allocatorIcEEEE
_ZN5llvmo33llvm_sys__jitFinalizeReplFunctionEN7gctools9smart_ptrINS_10ClaspJIT_OEEERKNSt3__112basic_stringIcNS4_11char_traitsIcEENS4_9allocatorIcEEEESC_NS1_IN4core3T_OEEE
_ZN5llvmo24llvm_sys__optimizeModuleEPN4llvm6ModuleE
_ZN5llvmo37llvm_sys__removeAlwaysInlineFunctionsEPN4llvm6ModuleE
_ZN5llvmo37llvm_sys__remove_useless_global_ctorsEN7gctools9smart_ptrINS_8Module_OEEE
_ZN5llvmo32llvm_sys__lookup_jit_symbol_infoEPv
_ZN5llvmo33TargetRegistryLookupTarget_stringERKNSt3__112basic_stringIcNS0_11char_traitsIcEENS0_9allocatorIcEEEE
_ZN5llvmo26TargetRegistryLookupTargetERKNSt3__112basic_stringIcNS0_11char_traitsIcEENS0_9allocatorIcEEEEN7gctools9smart_ptrINS_8Triple_OEEE
_ZN5llvmo50finalizeEngineAndRegisterWithGcAndRunMainFunctionsEN7gctools9smart_ptrINS_17ExecutionEngine_OEEENS1_IN4core3T_OEEE
_ZN5llvmo39llvm_sys__accumulate_llvm_usage_secondsEd
_ZN5llvmo13PointerType_O3getEN7gctools9smart_ptrINS_6Type_OEEEj
_ZN5llvmo11ArrayType_O3getEN7gctools9smart_ptrINS_6Type_OEEEy
_ZN5llvmo12StructType_O3getEN7gctools9smart_ptrINS_13LLVMContext_OEEENS2_IN4core3T_OEEEb
_ZN5llvmo12StructType_O4makeEN7gctools9smart_ptrINS_13LLVMContext_OEEENS2_IN4core3T_OEEENS2_INS5_7Array_OEEES7_
_ZN5llvmo14FunctionType_O3getEN7gctools9smart_ptrIN4core3T_OEEES5_S5_
_ZN5llvmo24llvm_sys__FunctionCreateEN7gctools9smart_ptrINS_14FunctionType_OEEEN4llvm11GlobalValue12LinkageTypesENS1_IN4core7Array_OEEENS1_INS_8Module_OEEE
_ZN5llvmo17ValueAsMetadata_O3getEN7gctools9smart_ptrINS_7Value_OEEE
_ZN5llvmo10MDString_O3getEN7gctools9smart_ptrINS_13LLVMContext_OEEENS2_IN4core7Array_OEEE
_ZN5llvmo8MDNode_O3getEN7gctools9smart_ptrINS_13LLVMContext_OEEENS2_IN4core6List_VEEE
_ZN5llvmo11IRBuilder_O4makeEN7gctools9smart_ptrINS_13LLVMContext_OEEE
_ZN5llvmo9toIntegerEN7gctools9smart_ptrINS_7APInt_OEEEb
_ZN5llvmo7APInt_O11makeAPInt64EN7gctools9smart_ptrIN4core9Integer_OEEE
_ZN5llvmo7APInt_O11makeAPInt32EN7gctools9smart_ptrIN4core9Integer_OEEE
_ZN5llvmo7APInt_O14makeAPIntWidthEN7gctools9smart_ptrIN4core9Integer_OEEEjb
_ZN5llvmo7APInt_O10makeAPInt1EN7gctools9smart_ptrIN4core3T_OEEE
_ZN5llvmo9APFloat_O17makeAPFloatDoubleEN7gctools9smart_ptrIN4core13DoubleFloat_OEEE
_ZN5llvmo9APFloat_O16makeAPFloatFloatEN7gctools9smart_ptrIN4core13SingleFloat_IEEE
_ZN5llvmo41llvm_sys__insert_alloca_before_terminatorEPN4llvm4TypeERKNS0_5TwineEPNS0_10BasicBlockE
_ZN5llvmo40llvm_sys__call_or_invoke_getArgumentListEN7gctools9smart_ptrINS_10CallBase_OEEE
_ZN5llvmo22llvm_sys__replace_callEPN4llvm8FunctionEPNS0_11InstructionENS0_8ArrayRefIPNS0_5ValueEEE
_ZN5llvmo32llvm_sys__replace_call_keep_argsEPN4llvm8FunctionEPNS0_11InstructionE
_ZN5llvmo48llvm_sys__instruction_getNextNonDebugInstructionEN7gctools9smart_ptrINS_13Instruction_OEEE
_ZN5llvmo37llvm_sys__instruction_eraseFromParentEN7gctools9smart_ptrINS_13Instruction_OEEE
_ZN5llvmo25llvm_sys__getDebugLocInfoEN7gctools9smart_ptrINS_13Instruction_OEEE
_ZN5llvmo16GlobalVariable_O4makeEN7gctools9smart_ptrINS_8Module_OEEENS2_INS_6Type_OEEEbNS2_IN4core8Symbol_OEEENS2_INS7_3T_OEEENS2_INS7_7Array_OEEESB_S9_
_ZN5llvmo14ConstantExpr_O24getInBoundsGetElementPtrEPN4llvm4TypeEN7gctools9smart_ptrINS_10Constant_OEEENS5_IN4core6List_VEEE
_ZN5llvmo14BlockAddress_O3getEN7gctools9smart_ptrINS_10Function_OEEENS2_INS_12BasicBlock_OEEE
_ZN5llvmo15ConstantArray_O3getEN7gctools9smart_ptrINS_11ArrayType_OEEENS2_IN4core6List_VEEE
_ZN5llvmo19ConstantDataArray_O9getUInt32EN7gctools9smart_ptrINS_13LLVMContext_OEEENS2_IN4core3T_OEEE
_ZN5llvmo31PassManagerBuilderSetfSizeLevelEN7gctools9smart_ptrINS_20PassManagerBuilder_OEEEi
_ZN5llvmo30PassManagerBuilderSetfOptLevelEN7gctools9smart_ptrINS_20PassManagerBuilder_OEEEi
_ZN5llvmo29PassManagerBuilderSetfInlinerEN7gctools9smart_ptrINS_20PassManagerBuilder_OEEEPN4llvm4PassE
_ZN5llvmo20PassManagerBuilder_O4makeEv
_ZN5llvmo15EngineBuilder_O4makeEN7gctools9smart_ptrINS_8Module_OEEE
_ZN5llvmo13PassManager_O4makeEv
_ZN5llvmo21FunctionPassManager_O4makeEPN4llvm6ModuleE
_ZN5llvmo30TargetLibraryInfoWrapperPass_O4makeEPN4llvm6TripleE
_ZN5llvmo34llvm_sys__module_get_function_listEN7gctools9smart_ptrINS_8Module_OEEE
_ZN5llvmo8Module_O4makeEN4llvm9StringRefEN7gctools9smart_ptrINS_13LLVMContext_OEEE
_ZN5llvmo15llvm_sys__validEN7gctools9smart_ptrIN4core3T_OEEE
_ZN5llvmo26llvm_sys__makeStringGlobalEN7gctools9smart_ptrINS_8Module_OEEENS1_IN4core7Array_OEEENS1_INS4_3T_OEEE
_ZN5llvmo16llvm_sys__valuepEN7gctools9smart_ptrIN4core3T_OEEE
_ZN5llvmo22llvm_sys__clone_moduleEN7gctools9smart_ptrINS_8Module_OEEE
_ZN5llvmo26llvm_sys__parseBitcodeFileEN7gctools9smart_ptrIN4core3T_OEEENS1_INS_13LLVMContext_OEEE
_ZN5llvmo21llvm_sys__parseIRFileEN7gctools9smart_ptrIN4core3T_OEEENS1_INS_13LLVMContext_OEEE
_ZN5llvmo23llvm_sys__parseIRStringEN7gctools9smart_ptrIN4core3T_OEEENS1_INS_13LLVMContext_OEEE
_ZN5llvmo28llvm_sys__writeBitcodeToFileEN7gctools9smart_ptrINS_8Module_OEEENS1_IN4core7Array_OEEEb
_ZN5llvmo23llvm_sys__writeIrToFileEN7gctools9smart_ptrINS_8Module_OEEENS1_IN4core7Array_OEEE
_ZN5llvmo29llvm_sys__printModuleToStreamEN7gctools9smart_ptrINS_8Module_OEEENS1_IN4core3T_OEEE
_ZN5llvmo31llvm_sys__printFunctionToStreamEN7gctools9smart_ptrINS_10Function_OEEENS1_IN4core3T_OEEE
_ZN5llvmo24llvm_sys__verifyFunctionEN7gctools9smart_ptrINS_10Function_OEEE
_ZN5llvmo22llvm_sys__verifyModuleEN7gctools9smart_ptrINS_8Module_OEEENS1_IN4core8Symbol_OEEE
_ZN5llvmo15TargetOptions_O4makeEv
_ZN5llvmo8Triple_O4makeERKNSt3__112basic_stringIcNS1_11char_traitsIcEENS1_9allocatorIcEEEE
_ZN5llvmo26llvm_sys__createPassConfigEN7gctools9smart_ptrINS_15TargetMachine_OEEENS1_INS_17PassManagerBase_OEEE
_ZN5llvmo29llvm_sys__sanity_check_moduleEN7gctools9smart_ptrINS_8Module_OEEEi
_ZN5llvmo31llvm_sys__dump_instruction_listEN7gctools9smart_ptrINS_12BasicBlock_OEEE
_ZN5llvmo35llvm_sys__dump_instruction_pointersEPN4llvm11InstructionE
_ZN5llvmo57llvm_sys__create_invoke_instruction_append_to_basic_blockEPN4llvm8FunctionEPNS0_10BasicBlockES4_N7gctools9smart_ptrIN4core6List_VEEENS6_INS7_7Array_OEEES4_
_ZN5llvmo21llvm_sys__linkModulesEN7gctools9smart_ptrINS_8Module_OEEES3_
_ZN5llvmo24llvm_sys__link_in_moduleEN7gctools9smart_ptrINS_8Linker_OEEENS1_INS_8Module_OEEE
_ZN5llvmo8Linker_O4makeEN7gctools9smart_ptrINS_8Module_OEEE
_ZN5llvmo35llvm_sys__thread_local_llvm_contextEv
_ZN5llvmo19ThreadSafeContext_O26create_thread_safe_contextEv
_ZN5llvmo13LLVMContext_O19create_llvm_contextEv
_ZN5llvmo34llvm_sys__disassemble_instructionsERKNSt3__112basic_stringIcNS0_11char_traitsIcEENS0_9allocatorIcEEEEN7gctools9smart_ptrIN4core9Pointer_OEEESD_
_ZN5llvmo35llvm_sys__get_default_target_tripleEv
_ZN5llvmo22llvm_sys__llvm_value_pEN7gctools9smart_ptrIN4core3T_OEEE
_ZN5llvmo26llvm_sys__debugObjectFilesEN7gctools9smart_ptrIN4core8Symbol_OEEE
_ZN5llvmo15llvm_sys__dwTagEN7gctools9smart_ptrIN4core8Symbol_OEEEj
_ZN5llvmo10DebugLoc_O4makeERKN4llvm8DebugLocE
_ZN5llvmo29llvm_sys__address_informationEPvb
_ZN5llvmo14DWARFContext_O18createDwarfContextEN7gctools9smart_ptrINS_12ObjectFile_OEEE
_ZN5llvmo21getLineInfoForAddressEN7gctools9smart_ptrINS_14DWARFContext_OEEENS1_INS_18SectionedAddress_OEEE
_ZN5llvmo30llvm_sys__createExpressionNoneEN7gctools9smart_ptrINS_11DIBuilder_OEEE
_ZN5llvmo11DIBuilder_O4makeEN7gctools9smart_ptrINS_8Module_OEEE
_ZN5llvmo12DILocation_O4makeERN4llvm11LLVMContextEjjN7gctools9smart_ptrINS_8DINode_OEEENS5_IN4core3T_OEEE
_ZN4llvm30createLowerExpectIntrinsicPassEv
_ZN4llvm18createEarlyCSEPassEb
_ZN4llvm36createCorrelatedValuePropagationPassEv
_ZN4llvm18createVerifierPassEb
_ZN4llvm29createTailCallEliminationPassEv
_ZN4llvm14createSCCPPassEv
_ZN4llvm21createReassociatePassEv
_ZN4llvm33createPromoteMemoryToRegisterPassEv
_ZN4llvm19createMemCpyOptPassEv
_ZN4llvm22createLoopUnswitchPassEbb
_ZN4llvm20createLoopUnrollPassEibbiiiiii
_ZN4llvm20createLoopRotatePassEib
_ZN4llvm19createLoopIdiomPassEv
_ZN4llvm22createLoopDeletionPassEv
_ZN4llvm23createJumpThreadingPassEbi
_ZN4llvm30createInstructionCombiningPassEj
_ZN4llvm24createIndVarSimplifyPassEv
_ZN4llvm13createGVNPassEb
_ZN4llvm30createDeadStoreEliminationPassEv
_ZN4llvm27createCFGSimplificationPassENS_18SimplifyCFGOptionsENSt3__18functionIFbRKNS_8FunctionEEEE
_ZN4llvm23createAggressiveDCEPassEv
_ZN4llvm22InitializeNativeTargetEv
_ZN4llvm19createMemDepPrinterEv
_ZN4llvm32createModuleDebugInfoPrinterPassEv
_ZN4llvm20createRegionInfoPassEv
_ZN4llvm19createInstCountPassEv
_ZN4llvm23createLazyValueInfoPassEv
_ZN4llvm16createAAEvalPassEv
_ZN4llvm29createAlwaysInlinerLegacyPassEb
_ZN4llvm26createFunctionInliningPassEjjb
_ZN4llvm4Type13getInt64PtrTyERNS_11LLVMContextEj
_ZN4llvm4Type13getInt32PtrTyERNS_11LLVMContextEj
_ZN4llvm4Type13getInt16PtrTyERNS_11LLVMContextEj
_ZN4llvm4Type12getInt8PtrTyERNS_11LLVMContextEj
_ZN4llvm4Type12getInt1PtrTyERNS_11LLVMContextEj
_ZN4llvm4Type12getIntNPtrTyERNS_11LLVMContextEjj
_ZN4llvm4Type14getDoublePtrTyERNS_11LLVMContextEj
_ZN4llvm4Type13getFloatPtrTyERNS_11LLVMContextEj
_ZN4llvm4Type11getInt128TyERNS_11LLVMContextE
_ZN4llvm4Type10getInt64TyERNS_11LLVMContextE
_ZN4llvm4Type10getInt32TyERNS_11LLVMContextE
_ZN4llvm4Type10getInt16TyERNS_11LLVMContextE
_ZN4llvm4Type9getInt8TyERNS_11LLVMContextE
_ZN4llvm4Type9getInt1TyERNS_11LLVMContextE
_ZN4llvm4Type9getIntNTyERNS_11LLVMContextEj
_ZN4llvm4Type13getMetadataTyERNS_11LLVMContextE
_ZN4llvm4Type11getDoubleTyERNS_11LLVMContextE
_ZN4llvm4Type10getFloatTyERNS_11LLVMContextE
_ZN4llvm4Type9getVoidTyERNS_11LLVMContextE
_ZN4llvm10BasicBlock6CreateERNS_11LLVMContextERKNS_5TwineEPNS_8FunctionEPS0_
_ZN4llvm19ConstantPointerNull3getEPNS_11PointerTypeE
_ZN4llvm10UndefValue3getEPNS_4TypeE
_ZN4llvm14ConstantStruct3getEPNS_10StructTypeENS_8ArrayRefIPNS_8ConstantEEE
_ZN4llvm11ConstantInt8getFalseERNS_11LLVMContextE
_ZN4llvm11ConstantInt7getTrueERNS_11LLVMContextE
_ZN4llvm11ConstantInt3getERNS_11LLVMContextERKNS_5APIntE
_ZN4llvm10ConstantFP3getEPNS_4TypeENS_9StringRefE
_ZN4llvm10ConstantFP3getEPNS_4TypeEd
_ZN4llvm10ConstantFP3getERNS_11LLVMContextERKNS_7APFloatE
_ZN4llvm15ValueAsMetadata3getEPNS_5ValueE
_ZN4llvm15MetadataAsValue11getIfExistsERNS_11LLVMContextEPNS_8MetadataE
_ZN4llvm15MetadataAsValue3getERNS_11LLVMContextEPNS_8MetadataE
_ZN4llvm6Triple9normalizeENS_9StringRefE
_ZN7sockets27sockets_internal__do_selectEN7gctools9smart_ptrIN4core3T_OEEEjNS1_INS2_9Pointer_OEEEi
_ZN7sockets31sockets_internal__get_host_nameEv
_ZN7sockets29sockets_internal__fdset_issetExN7gctools9smart_ptrIN4core9Pointer_OEEE
_ZN7sockets27sockets_internal__fdset_clrExN7gctools9smart_ptrIN4core9Pointer_OEEE
_ZN7sockets27sockets_internal__fdset_setExN7gctools9smart_ptrIN4core9Pointer_OEEE
_ZN7sockets28sockets_internal__fdset_zeroEN7gctools9smart_ptrIN4core9Pointer_OEEE
_ZN7sockets44sockets_internal__alloc_atomic_sizeof_fd_setEv
_ZN7sockets28sockets_internal__fd_setsizeEv
_ZN7sockets23sockets_internal__errnoEv
_ZN7sockets26sockets_internal__shutdownEii
_ZN7sockets37sockets_internal__ll_setSockoptLingerEiiii
_ZN7sockets38sockets_internal__ll_setSockoptTimevalEiiid
_ZN7sockets35sockets_internal__ll_setSockoptBoolEiiib
_ZN7sockets34sockets_internal__ll_setSockoptIntEiiii
_ZN7sockets37sockets_internal__ll_getSockoptLingerEiii
_ZN7sockets38sockets_internal__ll_getSockoptTimevalEiii
_ZN7sockets35sockets_internal__ll_getSockoptBoolEiii
_ZN7sockets34sockets_internal__ll_getSockoptIntEiii
_ZN7sockets35sockets_internal__ll_strerror_errnoEv
_ZN7sockets29sockets_internal__ll_strerrorEi
_ZN7sockets42sockets_internal__ll_autoCloseTwoWayStreamEN7gctools9smart_ptrIN4core8Stream_OEEE
_ZN7sockets37sockets_internal__ll_makeStreamFromFdERKNSt3__112basic_stringIcNS0_11char_traitsIcEENS0_9allocatorIcEEEEiiN7gctools9smart_ptrIN4core3T_OEEESD_
_ZN7sockets24sockets_internal__ll_dupEi
_ZN7sockets40sockets_internal__ll_setfNonBlockingModeEii
_ZN7sockets36sockets_internal__ll_nonBlockingModeEi
_ZN7sockets47sockets_internal__ll_socketPeername_localSocketEi
_ZN7sockets46sockets_internal__ll_socketConnect_localSocketEiiRKNSt3__112basic_stringIcNS0_11char_traitsIcEENS0_9allocatorIcEEEE
_ZN7sockets45sockets_internal__ll_socketAccept_localSocketEi
_ZN7sockets43sockets_internal__ll_socketBind_localSocketEiRKNSt3__112basic_stringIcNS0_11char_traitsIcEENS0_9allocatorIcEEEEi
_ZN7sockets40sockets_internal__ll_socketSendNoAddressEiN7gctools9smart_ptrIN4core7Array_OEEEibbbbbb
_ZN7sockets38sockets_internal__ll_socketSendAddressEiN7gctools9smart_ptrIN4core7Array_OEEEiiiiiibbbbbb
_ZN7sockets31sockets_internal__ll_socketNameEiN7gctools9smart_ptrIN4core7Array_OEEE
_ZN7sockets46sockets_internal__ll_socketPeername_inetSocketEiN7gctools9smart_ptrIN4core7Array_OEEE
_ZN7sockets45sockets_internal__ll_socketConnect_inetSocketEiiiiii
_ZN7sockets44sockets_internal__ll_socketAccept_inetSocketEi
_ZN7sockets42sockets_internal__ll_socketBind_inetSocketEiiiiii
_ZN7sockets38sockets_internal__ll_getProtocolByNameERKNSt3__112basic_stringIcNS0_11char_traitsIcEENS0_9allocatorIcEEEE
_ZN7sockets34sockets_internal__ll_socketReceiveEiN7gctools9smart_ptrIN4core3T_OEEEibbb
_ZN7sockets37sockets_internal__ll_getHostByAddressEN7gctools9smart_ptrIN4core7Array_OEEENS1_INS2_3T_OEEES6_S6_S6_S6_
_ZN7sockets34sockets_internal__ll_getHostByNameERKNSt3__112basic_stringIcNS0_11char_traitsIcEENS0_9allocatorIcEEEEN7gctools9smart_ptrIN4core3T_OEEENSA_INSB_10Function_OEEESF_SF_SF_
_ZN7sockets47sockets_internal__ll_getNameServiceErrorMessageEi
_ZN7sockets45sockets_internal__ll_get_name_service_h_errnoEv
_ZN7sockets33sockets_internal__ll_socket_errnoEv
_ZN7sockets26sockets_internal__funcNameEv
_ZN7sockets26sockets_internal__ff_closeEi
_ZN7sockets27sockets_internal__ff_listenEii
_ZN7sockets27sockets_internal__ff_socketEiii
_ZN10serveEvent46serve_event_internal__ll_serveEventWithTimeoutEN7gctools9smart_ptrIN9clasp_ffi13ForeignData_OEEES4_id
_ZN10serveEvent44serve_event_internal__ll_serveEventNoTimeoutEN7gctools9smart_ptrIN9clasp_ffi13ForeignData_OEEES4_i
_ZN10serveEvent35serve_event_internal__ll_fdset_sizeEv
_ZN10serveEvent33serve_event_internal__ll_fd_issetEiN7gctools9smart_ptrIN9clasp_ffi13ForeignData_OEEE
_ZN10serveEvent31serve_event_internal__ll_fd_setEiN7gctools9smart_ptrIN9clasp_ffi13ForeignData_OEEE
_ZN10serveEvent32serve_event_internal__ll_fd_zeroEN7gctools9smart_ptrIN9clasp_ffi13ForeignData_OEEE
_ZN9clasp_ffi23PERCENTget_section_dataEN7gctools9smart_ptrIN4core7Array_OEEES4_
_ZN9clasp_ffi28PERCENTmem_set_unsigned_charEN7gctools9smart_ptrIN4core9Integer_OEEENS1_INS2_3T_OEEE
_ZN9clasp_ffi19PERCENTmem_set_charEN7gctools9smart_ptrIN4core9Integer_OEEENS1_INS2_3T_OEEE
_ZN9clasp_ffi22PERCENTmem_set_ptrdiffEN7gctools9smart_ptrIN4core9Integer_OEEENS1_INS2_3T_OEEE
_ZN9clasp_ffi20PERCENTmem_set_ssizeEN7gctools9smart_ptrIN4core9Integer_OEEENS1_INS2_3T_OEEE
_ZN9clasp_ffi19PERCENTmem_set_sizeEN7gctools9smart_ptrIN4core9Integer_OEEENS1_INS2_3T_OEEE
_ZN9clasp_ffi22PERCENTmem_set_pointerEN7gctools9smart_ptrIN4core9Integer_OEEENS1_INS2_3T_OEEE
_ZN9clasp_ffi19PERCENTmem_set_timeEN7gctools9smart_ptrIN4core9Integer_OEEENS1_INS2_3T_OEEE
_ZN9clasp_ffi26PERCENTmem_set_long_doubleEN7gctools9smart_ptrIN4core9Integer_OEEENS1_INS2_3T_OEEE
_ZN9clasp_ffi20PERCENTmem_set_floatEN7gctools9smart_ptrIN4core9Integer_OEEENS1_INS2_3T_OEEE
_ZN9clasp_ffi21PERCENTmem_set_doubleEN7gctools9smart_ptrIN4core9Integer_OEEENS1_INS2_3T_OEEE
_ZN9clasp_ffi33PERCENTmem_set_unsigned_long_longEN7gctools9smart_ptrIN4core9Integer_OEEENS1_INS2_3T_OEEE
_ZN9clasp_ffi24PERCENTmem_set_long_longEN7gctools9smart_ptrIN4core9Integer_OEEENS1_INS2_3T_OEEE
_ZN9clasp_ffi28PERCENTmem_set_unsigned_longEN7gctools9smart_ptrIN4core9Integer_OEEENS1_INS2_3T_OEEE
_ZN9clasp_ffi19PERCENTmem_set_longEN7gctools9smart_ptrIN4core9Integer_OEEENS1_INS2_3T_OEEE
_ZN9clasp_ffi21PERCENTmem_set_uint64EN7gctools9smart_ptrIN4core9Integer_OEEENS1_INS2_3T_OEEE
_ZN9clasp_ffi20PERCENTmem_set_int64EN7gctools9smart_ptrIN4core9Integer_OEEENS1_INS2_3T_OEEE
_ZN9clasp_ffi21PERCENTmem_set_uint32EN7gctools9smart_ptrIN4core9Integer_OEEENS1_INS2_3T_OEEE
_ZN9clasp_ffi20PERCENTmem_set_int32EN7gctools9smart_ptrIN4core9Integer_OEEENS1_INS2_3T_OEEE
_ZN9clasp_ffi21PERCENTmem_set_uint16EN7gctools9smart_ptrIN4core9Integer_OEEENS1_INS2_3T_OEEE
_ZN9clasp_ffi20PERCENTmem_set_int16EN7gctools9smart_ptrIN4core9Integer_OEEENS1_INS2_3T_OEEE
_ZN9clasp_ffi20PERCENTmem_set_uint8EN7gctools9smart_ptrIN4core9Integer_OEEENS1_INS2_3T_OEEE
_ZN9clasp_ffi19PERCENTmem_set_int8EN7gctools9smart_ptrIN4core9Integer_OEEENS1_INS2_3T_OEEE
_ZN9clasp_ffi27PERCENTmem_set_unsigned_intEN7gctools9smart_ptrIN4core9Integer_OEEENS1_INS2_3T_OEEE
_ZN9clasp_ffi18PERCENTmem_set_intEN7gctools9smart_ptrIN4core9Integer_OEEENS1_INS2_3T_OEEE
_ZN9clasp_ffi29PERCENTmem_set_unsigned_shortEN7gctools9smart_ptrIN4core9Integer_OEEENS1_INS2_3T_OEEE
_ZN9clasp_ffi20PERCENTmem_set_shortEN7gctools9smart_ptrIN4core9Integer_OEEENS1_INS2_3T_OEEE
_ZN9clasp_ffi28PERCENTmem_ref_unsigned_charEN7gctools9smart_ptrIN4core9Integer_OEEE
_ZN9clasp_ffi19PERCENTmem_ref_charEN7gctools9smart_ptrIN4core9Integer_OEEE
_ZN9clasp_ffi22PERCENTmem_ref_ptrdiffEN7gctools9smart_ptrIN4core9Integer_OEEE
_ZN9clasp_ffi20PERCENTmem_ref_ssizeEN7gctools9smart_ptrIN4core9Integer_OEEE
_ZN9clasp_ffi19PERCENTmem_ref_sizeEN7gctools9smart_ptrIN4core9Integer_OEEE
_ZN9clasp_ffi22PERCENTmem_ref_pointerEN7gctools9smart_ptrIN4core9Integer_OEEE
_ZN9clasp_ffi19PERCENTmem_ref_timeEN7gctools9smart_ptrIN4core9Integer_OEEE
_ZN9clasp_ffi26PERCENTmem_ref_long_doubleEN7gctools9smart_ptrIN4core9Integer_OEEE
_ZN9clasp_ffi20PERCENTmem_ref_floatEN7gctools9smart_ptrIN4core9Integer_OEEE
_ZN9clasp_ffi21PERCENTmem_ref_doubleEN7gctools9smart_ptrIN4core9Integer_OEEE
_ZN9clasp_ffi33PERCENTmem_ref_unsigned_long_longEN7gctools9smart_ptrIN4core9Integer_OEEE
_ZN9clasp_ffi24PERCENTmem_ref_long_longEN7gctools9smart_ptrIN4core9Integer_OEEE
_ZN9clasp_ffi28PERCENTmem_ref_unsigned_longEN7gctools9smart_ptrIN4core9Integer_OEEE
_ZN9clasp_ffi19PERCENTmem_ref_longEN7gctools9smart_ptrIN4core9Integer_OEEE
_ZN9clasp_ffi21PERCENTmem_ref_uint64EN7gctools9smart_ptrIN4core9Integer_OEEE
_ZN9clasp_ffi20PERCENTmem_ref_int64EN7gctools9smart_ptrIN4core9Integer_OEEE
_ZN9clasp_ffi21PERCENTmem_ref_uint32EN7gctools9smart_ptrIN4core9Integer_OEEE
_ZN9clasp_ffi20PERCENTmem_ref_int32EN7gctools9smart_ptrIN4core9Integer_OEEE
_ZN9clasp_ffi21PERCENTmem_ref_uint16EN7gctools9smart_ptrIN4core9Integer_OEEE
_ZN9clasp_ffi20PERCENTmem_ref_int16EN7gctools9smart_ptrIN4core9Integer_OEEE
_ZN9clasp_ffi20PERCENTmem_ref_uint8EN7gctools9smart_ptrIN4core9Integer_OEEE
_ZN9clasp_ffi19PERCENTmem_ref_int8EN7gctools9smart_ptrIN4core9Integer_OEEE
_ZN9clasp_ffi27PERCENTmem_ref_unsigned_intEN7gctools9smart_ptrIN4core9Integer_OEEE
_ZN9clasp_ffi18PERCENTmem_ref_intEN7gctools9smart_ptrIN4core9Integer_OEEE
_ZN9clasp_ffi29PERCENTmem_ref_unsigned_shortEN7gctools9smart_ptrIN4core9Integer_OEEE
_ZN9clasp_ffi20PERCENTmem_ref_shortEN7gctools9smart_ptrIN4core9Integer_OEEE
_ZN9clasp_ffi12PERCENTdlsymEN7gctools9smart_ptrIN4core7Array_OEEE
_ZN9clasp_ffi14PERCENTdlcloseEN7gctools9smart_ptrINS_13ForeignData_OEEE
_ZN9clasp_ffi13PERCENTdlopenEN7gctools9smart_ptrIN4core3T_OEEE
_ZN9clasp_ffi28PERCENTforeign_data_pointerpEN7gctools9smart_ptrIN4core3T_OEEE
_ZN9clasp_ffi37PERCENTcore_pointer_from_foreign_dataEN7gctools9smart_ptrINS_13ForeignData_OEEE
_ZN9clasp_ffi32PERCENToffset_address_as_integerEN7gctools9smart_ptrIN4core3T_OEEENS1_INS2_9Integer_OEEE
_ZN9clasp_ffi21PERCENTnull_pointer_pEN7gctools9smart_ptrIN4core3T_OEEE
_ZN9clasp_ffi23PERCENTmake_nullpointerEv
_ZN9clasp_ffi15PERCENTpointerpEN7gctools9smart_ptrIN4core3T_OEEE
_ZN9clasp_ffi19PERCENTmake_pointerEN7gctools9smart_ptrIN4core9Integer_OEEE
_ZN9clasp_ffi28PERCENTallocate_foreign_dataEN7gctools9smart_ptrIN4core9Integer_OEEE
_ZN9clasp_ffi30PERCENTallocate_foreign_objectEN7gctools9smart_ptrIN4core3T_OEEE
_ZN7gctools23gctools__register_rootsENS_9smart_ptrIN4core3T_OEEENS0_INS1_6List_VEEE
_ZN7gctools23gctools__nextStampValueEv
_ZN7gctools25gctools__next_header_kindEv
_ZN7gctools28gctools__ensure_valid_objectENS_15multiple_valuesIN4core3T_OEEE
_ZN7gctools25weak_key_hash_table_pairsERKNS_16WeakKeyHashTableE
_ZN7gctools32gctools__unwind_time_nanosecondsEv
_ZN7gctools29gctools__thread_local_cleanupEv
_ZN7gctools22gctools__configurationEv
_ZN7gctools26gctools__debug_allocationsENS_9smart_ptrIN4core3T_OEEE
_ZN7gctools31gctools__poll_ticks_per_cleanupEi
_ZN7gctools16gctools__cleanupEb
_ZN7gctools27gctools__get_stamp_name_mapEv
_ZN7gctools28gctools__register_stamp_nameERKNSt3__112basic_stringIcNS0_11char_traitsIcEENS0_9allocatorIcEEEEm
_ZN7gctools24gctools__garbage_collectEv
_ZN7gctools20gctools__stack_depthEv
_ZN7gctools30gctools__memory_profile_statusEv
_ZN7gctools23gctools__telemetryResetENS_9smart_ptrIN4core8Fixnum_IEEE
_ZN7gctools21gctools__telemetrySetENS_9smart_ptrIN4core8Fixnum_IEEE
_ZN7gctools23gctools__telemetryFlushEv
_ZN7gctools19gctools__definalizeENS_9smart_ptrIN4core3T_OEEE
_ZN7gctools17gctools__finalizeENS_9smart_ptrIN4core3T_OEEES3_
_ZN7gctools25gctools__objects_that_ownENS_9smart_ptrIN4core3T_OEEE
_ZN7gctools27gctools__objects_with_stampENS_9smart_ptrIN4core3T_OEEE
_ZN7gctools13gctools__sladEv
_ZN7gctools26gctools__save_lisp_and_dieERKNSt3__112basic_stringIcNS0_11char_traitsIcEENS0_9allocatorIcEEEE
_ZN7gctools8cl__roomENS_9smart_ptrIN4core3T_OEEE
_ZN7gctools26gctools__alloc_pattern_endEv
_ZN7gctools28gctools__alloc_pattern_beginENS_9smart_ptrIN4core8Symbol_OEEE
_ZN7gctools18gctools__gc_markerENS_9smart_ptrIN4core8Fixnum_IEEE
_ZN7gctools28gctools__monitor_allocationsEbNS_9smart_ptrIN4core8Fixnum_IEEES3_S3_
_ZN7gctools16gctools__gc_infoENS_9smart_ptrIN4core3T_OEEENS0_INS1_8Fixnum_IEEE
_ZN7gctools28core__inherits_from_instanceENS_9smart_ptrIN4core3T_OEEE
_ZN7gctools24core__instance_stamp_setENS_9smart_ptrIN4core3T_OEEES3_
_ZN7gctools23core__stamps_adjacent_pEmm
_ZN7gctools20core__instance_stampENS_9smart_ptrIN4core3T_OEEE
_ZN7gctools35core__shift_stamp_for_compiled_codeEm
_ZN7gctools17core__stamp_indexEm
_ZN7gctools17core__header_kindENS_9smart_ptrIN4core3T_OEEE
_ZN7gctools32gctools__tagged_pointer_mps_testEv
_ZN7gctools27core__header_value_to_stampENS_9smart_ptrIN4core3T_OEEE
_ZN7gctools18core__header_valueENS_9smart_ptrIN4core3T_OEEE
_ZN7gctools22core__next_unused_kindEv
_ZN7gctools24gctools__bytes_allocatedEv
_ZN7gctools38gctools__deallocate_unmanaged_instanceENS_9smart_ptrIN4core3T_OEEE
_ZN7gctools29gctools__unix_signal_handlersEv
_ZN7gctools40gctools__change_sigchld_sigport_handlersEv
_ZN7gctools36gctools__thread_local_unwind_counterEv
_ZN7gctools25gctools__bootstrap_kind_pERKNSt3__112basic_stringIcNS0_11char_traitsIcEENS0_9allocatorIcEEEE
_ZN7gctools31gctools__bootstrap_kind_symbolsEv
_ZN7gctools35gctools__next_lexical_depth_counterEv
_ZN7gctools28gctools__max_bootstrap_kindsEv
_ZN7gctools52gctools__discriminating_function_compilation_secondsEv
_ZN7gctools63gctools__accumulate_discriminating_function_compilation_secondsEd
_ZN7gctools23core__signal_code_alistEv
_ZN7gctools30core__push_unix_signal_handlerEiNS_9smart_ptrIN4core8Symbol_OEEES3_
_ZN7gctools26core__set_current_fpe_maskENS_9smart_ptrIN4core8Fixnum_IEEE
_ZN7gctools26core__get_current_fpe_maskEv
_ZN7gctools22core__enable_fpe_masksENS_9smart_ptrIN4core3T_OEEES3_S3_S3_S3_S3_
_ZN7gctools27core__disable_all_fpe_masksEv
_ZN7gctools28core__enable_disable_signalsEii
_ZN7gctools30core__check_pending_interruptsEv
_ZN7gctools17core__signal_infoEi
_ZN7gctools41gctools__size_of_stamp_field_layout_tableEv
_ZN7gctools29gctools__thread_local_unwindsEv
_ZNK4core13Environment_O16classifyVariableEN7gctools9smart_ptrINS_3T_OEEE
_ZN4core13Environment_O24environmentStackAsStringEv
_ZNK4core13Environment_O18environmentAddressEv
_ZN4core27RuntimeVisibleEnvironment_O12setInvisibleEb
_ZN4core18ValueEnvironment_O20defineSpecialBindingEN7gctools9smart_ptrINS_8Symbol_OEEE
_ZN4core18ValueEnvironment_O20defineLexicalBindingEN7gctools9smart_ptrINS_8Symbol_OEEEi
_ZN4core26FunctionValueEnvironment_O13bind_functionEN7gctools9smart_ptrINS_3T_OEEENS2_INS_10Function_OEEE
_ZNK4core26UnwindProtectEnvironment_O11cleanupFormEv
_ZNK4core18BlockEnvironment_O16localReturnValueEv
_ZN4core18BlockEnvironment_O21setf_LocalReturnValueEN7gctools9smart_ptrINS_3T_OEEE
_ZNK4core18BlockEnvironment_O16localReturnBlockEv
_ZN4core18BlockEnvironment_O21setf_LocalReturnBlockEN7gctools9smart_ptrINS_3T_OEEE
_ZNK4core30FunctionContainerEnvironment_O37FunctionContainerEnvironment_functionEv
_ZNK4core30FunctionContainerEnvironment_O36FunctionContainerEnvironment_closureEv
_ZN4core20TagbodyEnvironment_O6addTagEN7gctools9smart_ptrINS_8Symbol_OEEENS2_INS_6List_VEEE
_ZNK4core20TagbodyEnvironment_O11localBlocksEv
_ZN4core20TagbodyEnvironment_O16setf_LocalBlocksEN7gctools9smart_ptrINS_3T_OEEE
_ZN4core21MacroletEnvironment_O8addMacroEN7gctools9smart_ptrINS_8Symbol_OEEENS2_INS_10Function_OEEE
_ZN4core27SymbolMacroletEnvironment_O14addSymbolMacroEN7gctools9smart_ptrINS_8Symbol_OEEENS2_INS_10Function_OEEE
_ZNK4core21FunctionDescription_O33function_description_sxhash_equalEv
_ZNK4core21FunctionDescription_O26function_description_equalEN7gctools9smart_ptrINS_3T_OEEE
_ZNK4core16EntryPointBase_O19functionDescriptionEv
_ZNK4core16CodeEntryPoint_O15EntryPoint_codeEv
_ZNK4core10Function_O28function_description_addressEv
_ZNK4core10Function_O16function_pointerEv
_ZN4core10Function_O16setSourcePosInfoEN7gctools9smart_ptrINS_3T_OEEEmii
_ZNK4core10Function_O25functionLambdaListHandlerEv
_ZNK4core10Function_O14sourcePathnameEv
_ZN4core10Function_O15setf_lambdaListEN7gctools9smart_ptrINS_3T_OEEE
_ZN4core10Function_O17setf_functionNameEN7gctools9smart_ptrINS_3T_OEEE
_ZNK4core10Function_O10entryPointEv
_ZN4core18ClosureWithSlots_O24closedEnvironment_rawRefEv
_ZN4core18ClosureWithSlots_O21interpretedSourceCodeEv
_ZN4core13ClassHolder_O9class_setEN7gctools9smart_ptrINS_10Instance_OEEE
_ZNK4core13ClassHolder_O9class_getEv
_ZNK4core11FileScope_O8pathnameEv
_ZN4core15SourcePosInfo_O26setf_source_pos_info_extraEN7gctools9smart_ptrINS_3T_OEEES4_
_ZN4core15SourcePosInfo_O35setf_source_pos_info_function_scopeEN7gctools9smart_ptrINS_3T_OEEE
_ZNK4core15SourcePosInfo_O30source_pos_info_function_scopeEv
_ZN4core15SourcePosInfo_O31setf_source_pos_info_inlined_atEN7gctools9smart_ptrINS_3T_OEEE
_ZNK4core15SourcePosInfo_O26source_pos_info_inlined_atEv
_ZNK4core15SourcePosInfo_O20source_pos_info_copyEv
_ZNK4core15SourcePosInfo_O22source_file_pos_columnEv
_ZNK4core15SourcePosInfo_O22source_file_pos_linenoEv
_ZNK4core15SourcePosInfo_O23source_file_pos_fileposEv
_ZN4core15SourcePosInfo_O4makeERKNSt3__112basic_stringIcNS1_11char_traitsIcEENS1_9allocatorIcEEEEmmm
_ZNK4core8Record_O12record_stageEv
_ZN4core8Record_O11field_patchEN7gctools9smart_ptrINS_8Symbol_OEEENS2_INS_3T_OEEE
_ZN4core8Record_O11field_writeEN7gctools9smart_ptrINS_8Symbol_OEEENS2_INS_3T_OEEE
_ZN4core8Record_O10field_readEN7gctools9smart_ptrINS_8Symbol_OEEE
_ZNK4core9Pointer_O15pointer_integerEv
_ZN4core16LoadTimeValues_O26load_time_value_array_setfEmN7gctools9smart_ptrINS_3T_OEEE
_ZN4core11PosixTime_O3subEN7gctools9smart_ptrIS0_EE
_ZN4core11PosixTime_O14setToLocalTimeEv
_ZN4core19PosixTimeDuration_O11toIsoStringEv
_ZN4core19PosixTimeDuration_O14toSimpleStringEv
_ZN4core19PosixTimeDuration_O5hoursEv
_ZN4core19PosixTimeDuration_O7minutesEv
_ZN4core19PosixTimeDuration_O7secondsEv
_ZN4core19PosixTimeDuration_O17totalMillisecondsEv
_ZN4core19PosixTimeDuration_O12totalSecondsEv
_ZN4core19PosixTimeDuration_O3subEN7gctools9smart_ptrIS0_EE
_ZN4core23SymbolToEnumConverter_O18enumIndexForSymbolEN7gctools9smart_ptrINS_3T_OEEE
_ZN2mp9Process_O12make_processEN7gctools9smart_ptrIN4core3T_OEEES5_S5_S5_m
_ZN2mp7Mutex_O10make_mutexEN7gctools9smart_ptrIN4core3T_OEEE
_ZN2mp13SharedMutex_O17make_shared_mutexEN7gctools9smart_ptrIN4core3T_OEEES5_
_ZN2mp16RecursiveMutex_O20make_recursive_mutexEN7gctools9smart_ptrIN4core3T_OEEE
_ZN2mp19ConditionVariable_O23condition_variable_nameEv
_ZN4core6Path_O6existsEv
_ZNK4core6Path_O8fileNameEv
_ZN4core6Path_O11parent_pathEv
_ZN4core6Path_O16replaceExtensionERKNSt3__112basic_stringIcNS1_11char_traitsIcEENS1_9allocatorIcEEEE
_ZN4core6Path_O9extensionEv
_ZN4core6Path_O4stemEv
_ZNK4core6Path_O8asStringEv
_ZNK4core6Path_O5partsEv
_ZN4core6Path_O17setPathFromStringERKNSt3__112basic_stringIcNS1_11char_traitsIcEENS1_9allocatorIcEEEE
_ZNK4core6Path_O8copyPathEv
_ZNK4core6Path_O8absoluteEv
_ZN4core6Path_O11path_appendERKNSt3__112basic_stringIcNS1_11char_traitsIcEENS1_9allocatorIcEEEE
_ZNK4core6Path_O15last_write_timeEv
_ZNK4core6Path_O10isAbsoluteEv
_ZN4core16DirectoryEntry_O4pathEv
_ZN4core16DirectoryEntry_O13symlinkStatusEv
_ZN4core16DirectoryEntry_O10fileStatusEv
_ZN4core12FileStatus_O7isOtherEv
_ZN4core12FileStatus_O9isSymlinkEv
_ZN4core12FileStatus_O11isDirectoryEv
_ZN4core12FileStatus_O13isRegularFileEv
_ZN4core12FileStatus_O6existsEv
_ZNK4core11HashTable_O23hashTableNumberOfHashesEv
_ZN4core11HashTable_O15hash_table_dumpEv
_ZN4core11HashTable_O32hash_table_average_search_lengthEv
_ZN4core11HashTable_O17hash_table_bucketEm
_ZNK4core11HashTable_O9hashIndexEN7gctools9smart_ptrINS_3T_OEEE
_ZNK4core11HashTable_O23hash_table_shared_mutexEv
_ZN4core16ImmobileObject_O7setTailEN7gctools9smart_ptrINS_3T_OEEE
_ZN4core16ImmobileObject_O7setHeadEN7gctools9smart_ptrINS_3T_OEEE
_ZNK4core16ImmobileObject_O7getTailEv
_ZNK4core16ImmobileObject_O7getHeadEv
_ZN4core16ImmobileObject_O20make_immobile_objectEN7gctools9smart_ptrINS_3T_OEEES4_
_ZNK5llvmo13LLVMContext_O17LLVMContext_equalEN7gctools9smart_ptrIN4core3T_OEEE
_ZN5llvmo19ThreadSafeContext_O10getContextEv
_ZN5llvmo16FunctionCallee_O9getCalleeEv
_ZN5llvmo16FunctionCallee_O15getFunctionTypeEv
_ZN5llvmo10JITDylib_O4dumpEN7gctools9smart_ptrIN4core3T_OEEE
_ZNK4llvm6Triple23getOSAndEnvironmentNameEv
_ZNK4llvm6Triple18getEnvironmentNameEv
_ZNK4llvm6Triple9getOSNameEv
_ZNK4llvm6Triple13getVendorNameEv
_ZNK4llvm6Triple11getArchNameEv
_ZNK4llvm6Triple9getTripleEv
_ZNK4llvm6Target19createTargetMachineENS_9StringRefES1_S1_RKNS_13TargetOptionsENS_8OptionalINS_5Reloc5ModelEEENS5_INS_9CodeModel5ModelEEENS_10CodeGenOpt5LevelEb
_ZN4llvm13TargetMachine11setFastISelEb
_ZNK4llvm13TargetMachine16createDataLayoutEv
_ZN5llvmo15TargetMachine_O36addPassesToEmitFileAndRunPassManagerEN7gctools9smart_ptrINS_13PassManager_OEEENS2_IN4core3T_OEEES7_N4llvm15CodeGenFileTypeENS2_INS_8Module_OEEE
_ZN5llvmo19LLVMTargetMachine_O37LLVMTargetMachine_addPassesToEmitFileEN7gctools9smart_ptrINS_17PassManagerBase_OEEENS2_IN4core3T_OEEENS2_INS5_8Symbol_OEEE
_ZN4llvm16TargetPassConfig18setEnableTailMergeEb
_ZN4llvm5Value18replaceAllUsesWithEPS0_
_ZNK4llvm5Value7getTypeEv
_ZN4llvm5Value7setNameERKNS_5TwineE
_ZNK4llvm5Value7getNameEv
_ZNK5llvmo7Value_O10getContextEv
_ZN5llvmo12DataLayout_O16getTypeAllocSizeEPN4llvm4TypeE
_ZNK5llvmo12DataLayout_O15getStructLayoutEN7gctools9smart_ptrINS_12StructType_OEEE
_ZNK5llvmo12DataLayout_O4copyEv
_ZNK5llvmo12DataLayout_O23getStringRepresentationEv
_ZNK5llvmo14StructLayout_O16getElementOffsetEm
_ZN5llvmo13GlobalValue_O14getUnnamedAddrEv
_ZN5llvmo13GlobalValue_O14setUnnamedAddrEN4llvm11GlobalValue11UnnamedAddrE
_ZN4llvm14GlobalVariable14setInitializerEPNS_8ConstantE
_ZN4llvm14GlobalVariable15eraseFromParentEv
_ZN4llvm15ExecutionEngine29getPointerToGlobalIfAvailableENS_9StringRefE
_ZN4llvm15ExecutionEngine29getPointerToGlobalIfAvailableEPKNS_11GlobalValueE
_ZNK4llvm15ExecutionEngine13getDataLayoutEv
_ZN4llvm15ExecutionEngine22clearAllGlobalMappingsEv
_ZN5llvmo17ExecutionEngine_O19find_function_namedEN7gctools9smart_ptrIN4core7Array_OEEE
_ZN5llvmo17ExecutionEngine_O12removeModuleEN7gctools9smart_ptrINS_8Module_OEEE
_ZN5llvmo17ExecutionEngine_O9addModuleEN7gctools9smart_ptrINS_8Module_OEEE
_ZN5llvmo17ExecutionEngine_O16addGlobalMappingEN7gctools9smart_ptrINS_13GlobalValue_OEEENS2_IN4core9Pointer_OEEE
_ZN5llvmo17ExecutionEngine_O14hasNamedModuleERKNSt3__112basic_stringIcNS1_11char_traitsIcEENS1_9allocatorIcEEEE
_ZNK5llvmo17ExecutionEngine_O20dependentModuleNamesEv
_ZNK5llvmo8Module_O13getGlobalListEv
_ZN5llvmo8Module_O38getOrCreateUniquedStringGlobalVariableERKNSt3__112basic_stringIcNS1_11char_traitsIcEENS1_9allocatorIcEEEES9_
_ZN5llvmo8Module_O27emit_version_ident_metadataEv
_ZNK5llvmo8Module_O16dump_namedMDListEv
_ZN5llvmo8Module_O12moduleDeleteEv
_ZNK5llvmo8Module_O13getDataLayoutEv
_ZNK5llvmo8Module_O5validEv
_ZN5llvmo8Module_O11getFunctionEN7gctools9smart_ptrIN4core7Array_OEEE
_ZN4llvm6Module15setTargetTripleENS_9StringRefE
_ZN4llvm6Module13setDataLayoutENS_9StringRefE
_ZN4llvm6Module13setDataLayoutERKNS_10DataLayoutE
_ZNK4llvm6Module15getTargetTripleEv
_ZNK4llvm6Module16getDataLayoutStrEv
_ZN4llvm6Module17getOrInsertGlobalENS_9StringRefEPNS_4TypeE
_ZN4llvm6Module19getOrInsertFunctionENS_9StringRefEPNS_12FunctionTypeE
_ZN4llvm6Module14getNamedGlobalENS_9StringRefE
_ZN4llvm6Module17getGlobalVariableENS_9StringRefEb
_ZNK4llvm6Module19getModuleIdentifierEv
_ZN4llvm6Module13addModuleFlagEPNS_6MDNodeE
_ZNK5llvmo8Module_O10getContextEv
_ZNK5llvmo8Module_O9module_idEv
_ZN4llvm6legacy19FunctionPassManager3runERNS_8FunctionE
_ZN4llvm6legacy19FunctionPassManager14doFinalizationEv
_ZN4llvm6legacy19FunctionPassManager16doInitializationEv
_ZN4llvm6legacy11PassManager3runERNS_6ModuleE
_ZN5llvmo15EngineBuilder_O21createExecutionEngineEv
_ZN5llvmo15EngineBuilder_O16setTargetOptionsEN7gctools9smart_ptrINS_15TargetOptions_OEEE
_ZN5llvmo15EngineBuilder_O13setEngineKindEN7gctools9smart_ptrIN4core8Symbol_OEEE
_ZNK5llvmo15EngineBuilder_O12error_stringEv
_ZN4llvm18PassManagerBuilder22populateLTOPassManagerERNS_6legacy15PassManagerBaseE
_ZN4llvm18PassManagerBuilder27populateFunctionPassManagerERNS_6legacy19FunctionPassManagerE
_ZN4llvm18PassManagerBuilder25populateModulePassManagerERNS_6legacy15PassManagerBaseE
_ZNK5llvmo7APInt_O8toStringEib
_ZN4llvm13IRBuilderBase17CreateInBoundsGEPEPNS_4TypeEPNS_5ValueENS_8ArrayRefIS4_EERKNS_5TwineE
_ZN4llvm13IRBuilderBase9CreateGEPEPNS_5ValueENS_8ArrayRefIS2_EERKNS_5TwineE
_ZN4llvm13IRBuilderBase9CreateGEPEPNS_5ValueES2_RKNS_5TwineE
_ZN4llvm13IRBuilderBase10CreateLoadEPNS_5ValueEbRKNS_5TwineE
_ZN4llvm13IRBuilderBase10CreateLoadEPNS_5ValueERKNS_5TwineE
_ZN4llvm13IRBuilderBase9CreateXorEPNS_5ValueEyRKNS_5TwineE
_ZN4llvm13IRBuilderBase9CreateXorEPNS_5ValueERKNS_5APIntERKNS_5TwineE
_ZN4llvm13IRBuilderBase9CreateXorEPNS_5ValueES2_RKNS_5TwineE
_ZN4llvm13IRBuilderBase8CreateOrEPNS_5ValueEyRKNS_5TwineE
_ZN4llvm13IRBuilderBase8CreateOrEPNS_5ValueERKNS_5APIntERKNS_5TwineE
_ZN4llvm13IRBuilderBase8CreateOrEPNS_5ValueES2_RKNS_5TwineE
_ZN4llvm13IRBuilderBase9CreateAndEPNS_5ValueEyRKNS_5TwineE
_ZN4llvm13IRBuilderBase9CreateAndEPNS_5ValueERKNS_5APIntERKNS_5TwineE
_ZN4llvm13IRBuilderBase9CreateAndEPNS_5ValueES2_RKNS_5TwineE
_ZN4llvm13IRBuilderBase10CreateAShrEPNS_5ValueEyRKNS_5TwineEb
_ZN4llvm13IRBuilderBase10CreateAShrEPNS_5ValueERKNS_5APIntERKNS_5TwineEb
_ZN4llvm13IRBuilderBase10CreateAShrEPNS_5ValueES2_RKNS_5TwineEb
_ZN4llvm13IRBuilderBase10CreateLShrEPNS_5ValueEyRKNS_5TwineEb
_ZN4llvm13IRBuilderBase10CreateLShrEPNS_5ValueERKNS_5APIntERKNS_5TwineEb
_ZN4llvm13IRBuilderBase10CreateLShrEPNS_5ValueES2_RKNS_5TwineEb
_ZN4llvm13IRBuilderBase9CreateShlEPNS_5ValueEyRKNS_5TwineEbb
_ZN4llvm13IRBuilderBase9CreateShlEPNS_5ValueERKNS_5APIntERKNS_5TwineEbb
_ZN4llvm13IRBuilderBase9CreateShlEPNS_5ValueES2_RKNS_5TwineEbb
_ZN4llvm13IRBuilderBase11CreateBinOpENS_11Instruction9BinaryOpsEPNS_5ValueES4_RKNS_5TwineEPNS_6MDNodeE
_ZN4llvm13IRBuilderBase13CreatePtrDiffEPNS_5ValueES2_RKNS_5TwineE
_ZN4llvm13IRBuilderBase15CreateIsNotNullEPNS_5ValueERKNS_5TwineE
_ZN4llvm13IRBuilderBase12CreateIsNullEPNS_5ValueERKNS_5TwineE
_ZN4llvm13IRBuilderBase16CreateLandingPadEPNS_4TypeEjRKNS_5TwineE
_ZN4llvm13IRBuilderBase19CreateShuffleVectorEPNS_5ValueES2_S2_RKNS_5TwineE
_ZN4llvm13IRBuilderBase19CreateInsertElementEPNS_5ValueES2_S2_RKNS_5TwineE
_ZN4llvm13IRBuilderBase20CreateExtractElementEPNS_5ValueES2_RKNS_5TwineE
_ZN4llvm13IRBuilderBase11CreateVAArgEPNS_5ValueEPNS_4TypeERKNS_5TwineE
_ZN4llvm13IRBuilderBase12CreateSelectEPNS_5ValueES2_S2_RKNS_5TwineEPNS_11InstructionE
_ZN4llvm13IRBuilderBase10CreateCallEPNS_12FunctionTypeEPNS_5ValueENS_8ArrayRefIS4_EERKNS_5TwineEPNS_6MDNodeE
_ZN4llvm13IRBuilderBase10CreateCallEPNS_12FunctionTypeEPNS_5ValueENS_8ArrayRefIS4_EERKNS_5TwineEPNS_6MDNodeE
_ZN4llvm13IRBuilderBase9CreatePHIEPNS_4TypeEjRKNS_5TwineE
_ZN4llvm13IRBuilderBase10CreateFCmpENS_7CmpInst9PredicateEPNS_5ValueES4_RKNS_5TwineEPNS_6MDNodeE
_ZN4llvm13IRBuilderBase10CreateICmpENS_7CmpInst9PredicateEPNS_5ValueES4_RKNS_5TwineE
_ZN4llvm13IRBuilderBase13CreateFCmpUNEEPNS_5ValueES2_RKNS_5TwineEPNS_6MDNodeE
_ZN4llvm13IRBuilderBase13CreateFCmpULEEPNS_5ValueES2_RKNS_5TwineEPNS_6MDNodeE
_ZN4llvm13IRBuilderBase13CreateFCmpULTEPNS_5ValueES2_RKNS_5TwineEPNS_6MDNodeE
_ZN4llvm13IRBuilderBase13CreateFCmpUGEEPNS_5ValueES2_RKNS_5TwineEPNS_6MDNodeE
_ZN4llvm13IRBuilderBase13CreateFCmpUGTEPNS_5ValueES2_RKNS_5TwineEPNS_6MDNodeE
_ZN4llvm13IRBuilderBase13CreateFCmpUEQEPNS_5ValueES2_RKNS_5TwineEPNS_6MDNodeE
_ZN4llvm13IRBuilderBase13CreateFCmpUNOEPNS_5ValueES2_RKNS_5TwineEPNS_6MDNodeE
_ZN4llvm13IRBuilderBase13CreateFCmpORDEPNS_5ValueES2_RKNS_5TwineEPNS_6MDNodeE
_ZN4llvm13IRBuilderBase13CreateFCmpONEEPNS_5ValueES2_RKNS_5TwineEPNS_6MDNodeE
_ZN4llvm13IRBuilderBase13CreateFCmpOLEEPNS_5ValueES2_RKNS_5TwineEPNS_6MDNodeE
_ZN4llvm13IRBuilderBase13CreateFCmpOLTEPNS_5ValueES2_RKNS_5TwineEPNS_6MDNodeE
_ZN4llvm13IRBuilderBase13CreateFCmpOGEEPNS_5ValueES2_RKNS_5TwineEPNS_6MDNodeE
_ZN4llvm13IRBuilderBase13CreateFCmpOGTEPNS_5ValueES2_RKNS_5TwineEPNS_6MDNodeE
_ZN4llvm13IRBuilderBase13CreateFCmpOEQEPNS_5ValueES2_RKNS_5TwineEPNS_6MDNodeE
_ZN4llvm13IRBuilderBase13CreateICmpSLEEPNS_5ValueES2_RKNS_5TwineE
_ZN4llvm13IRBuilderBase13CreateICmpSLTEPNS_5ValueES2_RKNS_5TwineE
_ZN4llvm13IRBuilderBase13CreateICmpSGEEPNS_5ValueES2_RKNS_5TwineE
_ZN4llvm13IRBuilderBase13CreateICmpSGTEPNS_5ValueES2_RKNS_5TwineE
_ZN4llvm13IRBuilderBase13CreateICmpULEEPNS_5ValueES2_RKNS_5TwineE
_ZN4llvm13IRBuilderBase13CreateICmpULTEPNS_5ValueES2_RKNS_5TwineE
_ZN4llvm13IRBuilderBase13CreateICmpUGEEPNS_5ValueES2_RKNS_5TwineE
_ZN4llvm13IRBuilderBase13CreateICmpUGTEPNS_5ValueES2_RKNS_5TwineE
_ZN4llvm13IRBuilderBase12CreateICmpNEEPNS_5ValueES2_RKNS_5TwineE
_ZN4llvm13IRBuilderBase12CreateICmpEQEPNS_5ValueES2_RKNS_5TwineE
_ZN4llvm13IRBuilderBase12CreateFPCastEPNS_5ValueEPNS_4TypeERKNS_5TwineE
_ZN4llvm13IRBuilderBase17CreatePointerCastEPNS_5ValueEPNS_4TypeERKNS_5TwineE
_ZN4llvm13IRBuilderBase10CreateCastENS_11Instruction7CastOpsEPNS_5ValueEPNS_4TypeERKNS_5TwineE
_ZN4llvm13IRBuilderBase20CreateTruncOrBitCastEPNS_5ValueEPNS_4TypeERKNS_5TwineE
_ZN4llvm13IRBuilderBase19CreateSExtOrBitCastEPNS_5ValueEPNS_4TypeERKNS_5TwineE
_ZN4llvm13IRBuilderBase19CreateZExtOrBitCastEPNS_5ValueEPNS_4TypeERKNS_5TwineE
_ZN4llvm13IRBuilderBase13CreateBitCastEPNS_5ValueEPNS_4TypeERKNS_5TwineE
_ZN4llvm13IRBuilderBase14CreateIntToPtrEPNS_5ValueEPNS_4TypeERKNS_5TwineE
_ZN4llvm13IRBuilderBase14CreatePtrToIntEPNS_5ValueEPNS_4TypeERKNS_5TwineE
_ZN4llvm13IRBuilderBase11CreateFPExtEPNS_5ValueEPNS_4TypeERKNS_5TwineE
_ZN4llvm13IRBuilderBase13CreateFPTruncEPNS_5ValueEPNS_4TypeERKNS_5TwineE
_ZN4llvm13IRBuilderBase12CreateSIToFPEPNS_5ValueEPNS_4TypeERKNS_5TwineE
_ZN4llvm13IRBuilderBase12CreateUIToFPEPNS_5ValueEPNS_4TypeERKNS_5TwineE
_ZN4llvm13IRBuilderBase12CreateFPToSIEPNS_5ValueEPNS_4TypeERKNS_5TwineE
_ZN4llvm13IRBuilderBase12CreateFPToUIEPNS_5ValueEPNS_4TypeERKNS_5TwineE
_ZN4llvm13IRBuilderBase10CreateSExtEPNS_5ValueEPNS_4TypeERKNS_5TwineE
_ZN4llvm13IRBuilderBase10CreateZExtEPNS_5ValueEPNS_4TypeERKNS_5TwineE
_ZN4llvm13IRBuilderBase11CreateTruncEPNS_5ValueEPNS_4TypeERKNS_5TwineE
_ZN4llvm13IRBuilderBase21CreateGlobalStringPtrENS_9StringRefERKNS_5TwineEjPNS_6ModuleE
_ZN4llvm13IRBuilderBase15CreateStructGEPEPNS_4TypeEPNS_5ValueEjRKNS_5TwineE
_ZN4llvm13IRBuilderBase26CreateConstInBoundsGEP2_64EPNS_5ValueEyyRKNS_5TwineE
_ZN4llvm13IRBuilderBase26CreateConstInBoundsGEP1_64EPNS_5ValueEyRKNS_5TwineE
_ZN4llvm13IRBuilderBase18CreateConstGEP1_64EPNS_5ValueEyRKNS_5TwineE
_ZN4llvm13IRBuilderBase26CreateConstInBoundsGEP2_32EPNS_4TypeEPNS_5ValueEjjRKNS_5TwineE
_ZN4llvm13IRBuilderBase18CreateConstGEP1_32EPNS_5ValueEjRKNS_5TwineE
_ZN4llvm13IRBuilderBase15CreateAtomicRMWENS_13AtomicRMWInst5BinOpEPNS_5ValueES4_NS_10MaybeAlignENS_14AtomicOrderingEh
_ZN4llvm13IRBuilderBase19CreateAtomicCmpXchgEPNS_5ValueES2_S2_NS_10MaybeAlignENS_14AtomicOrderingES4_h
_ZN4llvm13IRBuilderBase11CreateFenceENS_14AtomicOrderingEhRKNS_5TwineE
_ZN4llvm13IRBuilderBase11CreateStoreEPNS_5ValueES2_b
_ZN4llvm13IRBuilderBase12CreateAllocaEPNS_4TypeEPNS_5ValueERKNS_5TwineE
_ZN4llvm13IRBuilderBase9CreateNotEPNS_5ValueERKNS_5TwineE
_ZN4llvm13IRBuilderBase10CreateFNegEPNS_5ValueERKNS_5TwineEPNS_6MDNodeE
_ZN4llvm13IRBuilderBase12CreateNUWNegEPNS_5ValueERKNS_5TwineE
_ZN4llvm13IRBuilderBase12CreateNSWNegEPNS_5ValueERKNS_5TwineE
_ZN4llvm13IRBuilderBase9CreateNegEPNS_5ValueERKNS_5TwineEbb
_ZN4llvm13IRBuilderBase10CreateFRemEPNS_5ValueES2_RKNS_5TwineEPNS_6MDNodeE
_ZN4llvm13IRBuilderBase10CreateSRemEPNS_5ValueES2_RKNS_5TwineE
_ZN4llvm13IRBuilderBase10CreateURemEPNS_5ValueES2_RKNS_5TwineE
_ZN4llvm13IRBuilderBase10CreateFDivEPNS_5ValueES2_RKNS_5TwineEPNS_6MDNodeE
_ZN4llvm13IRBuilderBase15CreateExactSDivEPNS_5ValueES2_RKNS_5TwineE
_ZN4llvm13IRBuilderBase10CreateSDivEPNS_5ValueES2_RKNS_5TwineEb
_ZN4llvm13IRBuilderBase15CreateExactUDivEPNS_5ValueES2_RKNS_5TwineE
_ZN4llvm13IRBuilderBase10CreateUDivEPNS_5ValueES2_RKNS_5TwineEb
_ZN4llvm13IRBuilderBase10CreateFMulEPNS_5ValueES2_RKNS_5TwineEPNS_6MDNodeE
_ZN4llvm13IRBuilderBase12CreateNUWMulEPNS_5ValueES2_RKNS_5TwineE
_ZN4llvm13IRBuilderBase12CreateNSWMulEPNS_5ValueES2_RKNS_5TwineE
_ZN4llvm13IRBuilderBase9CreateMulEPNS_5ValueES2_RKNS_5TwineEbb
_ZN4llvm13IRBuilderBase10CreateFSubEPNS_5ValueES2_RKNS_5TwineEPNS_6MDNodeE
_ZN4llvm13IRBuilderBase12CreateNUWSubEPNS_5ValueES2_RKNS_5TwineE
_ZN4llvm13IRBuilderBase12CreateNSWSubEPNS_5ValueES2_RKNS_5TwineE
_ZN4llvm13IRBuilderBase9CreateSubEPNS_5ValueES2_RKNS_5TwineEbb
_ZN4llvm13IRBuilderBase10CreateFAddEPNS_5ValueES2_RKNS_5TwineEPNS_6MDNodeE
_ZN4llvm13IRBuilderBase12CreateNUWAddEPNS_5ValueES2_RKNS_5TwineE
_ZN4llvm13IRBuilderBase12CreateNSWAddEPNS_5ValueES2_RKNS_5TwineE
_ZN4llvm13IRBuilderBase17CreateUnreachableEv
_ZN4llvm13IRBuilderBase12CreateResumeEPNS_5ValueE
_ZN4llvm13IRBuilderBase16CreateIndirectBrEPNS_5ValueEj
_ZN4llvm13IRBuilderBase12CreateSwitchEPNS_5ValueEPNS_10BasicBlockEjPNS_6MDNodeES6_
_ZN4llvm13IRBuilderBase8CreateBrEPNS_10BasicBlockE
_ZN4llvm13IRBuilderBase13CreateRetVoidEv
_ZN4llvm13IRBuilderBase9CreateRetEPNS_5ValueE
_ZN4llvm13IRBuilderBase9CreateAddEPNS_5ValueES2_RKNS_5TwineEbb
_ZN4llvm13IRBuilderBase12CreateCondBrEPNS_5ValueEPNS_10BasicBlockES4_PNS_6MDNodeES6_
_ZN5llvmo15IRBuilderBase_O40SetCurrentDebugLocationToLineColumnScopeEiiN7gctools9smart_ptrINS_8DINode_OEEE
_ZN5llvmo15IRBuilderBase_O23SetCurrentDebugLocationEN7gctools9smart_ptrINS_12DILocation_OEEE
_ZN5llvmo15IRBuilderBase_O25ClearCurrentDebugLocationEv
_ZN5llvmo15IRBuilderBase_O25getInsertPointInstructionEv
_ZN5llvmo15IRBuilderBase_O6saveIPEv
_ZN5llvmo15IRBuilderBase_O9restoreIPEN7gctools9smart_ptrINS_13InsertPoint_OEEE
_ZNK4llvm13IRBuilderBase14GetInsertBlockEv
_ZN4llvm13IRBuilderBase14SetInsertPointEPNS_11InstructionE
_ZN4llvm13IRBuilderBase14SetInsertPointEPNS_10BasicBlockE
_ZN4llvm13IRBuilderBase14SetInsertPointEPNS_11InstructionE
_ZN4llvm13IRBuilderBase14SetInsertPointEPNS_10BasicBlockE
_ZN4llvm13IRBuilderBase18CreateGlobalStringENS_9StringRefERKNS_5TwineEjPNS_6ModuleE
_ZN5llvmo15IRBuilderBase_O20CurrentDebugLocationEv
_ZN5llvmo11IRBuilder_O17CreateInsertValueEPN4llvm5ValueES3_N7gctools9smart_ptrIN4core6List_VEEERKNS1_5TwineE
_ZN5llvmo11IRBuilder_O18CreateExtractValueEPN4llvm5ValueEN7gctools9smart_ptrIN4core6List_VEEERKNS1_5TwineE
_ZN5llvmo11IRBuilder_O17CreateInBoundsGEPEPN4llvm5ValueEN7gctools9smart_ptrIN4core6List_VEEERKNS1_5TwineE
_ZN5llvmo11IRBuilder_O18CreateConstGEP2_64EPN4llvm5ValueEmmRKNS1_5TwineE
_ZN5llvmo11IRBuilder_O18CreateConstGEP2_32EPN4llvm4TypeEPNS1_5ValueEiiRKNS1_5TwineE
_ZN5llvmo11IRBuilder_O12CreateInvokeEN7gctools9smart_ptrINS_14FunctionType_OEEEPN4llvm5ValueEPNS5_10BasicBlockES9_NS2_IN4core6List_VEEERKNS5_5TwineE
_ZNK5llvmo13Instruction_O15terminatorInstPEv
_ZN4llvm11Instruction12insertBeforeEPS0_
_ZN4llvm11Instruction11insertAfterEPS0_
_ZN4llvm11Instruction9getParentEv
_ZN5llvmo13Instruction_O11setMetadataEN7gctools9smart_ptrIN4core7Array_OEEENS2_INS_8MDNode_OEEE
_ZNK5llvmo13Instruction_O11InvokeInstPEv
_ZNK5llvmo13Instruction_O9CallInstPEv
_ZN5llvmo11StoreInst_O12setAlignmentEN7gctools9smart_ptrIN4core3T_OEEE
_ZN4llvm9StoreInst9setAtomicENS_14AtomicOrderingEh
_ZN4llvm7PHINode11addIncomingEPNS_5ValueEPNS_10BasicBlockE
_ZN5llvmo10CallBase_O17getCalledFunctionEv
_ZN5llvmo10CallBase_O12addParamAttrEjN4llvm9Attribute8AttrKindE
_ZN4llvm8CallBase14setCallingConvEj
_ZNK4llvm8CallBase14getCallingConvEv
_ZNK5llvmo10CallInst_O9CallInstPEv
_ZN4llvm14LandingPadInst9addClauseEPNS_8ConstantE
_ZNK4llvm14LandingPadInst9isCleanupEv
_ZN4llvm14LandingPadInst10setCleanupEb
_ZN5llvmo12AllocaInst_O12setAlignmentEN7gctools9smart_ptrIN4core3T_OEEE
_ZN5llvmo10LoadInst_O12setAlignmentEN7gctools9smart_ptrIN4core3T_OEEE
_ZN4llvm8LoadInst9setAtomicENS_14AtomicOrderingEh
_ZN5llvmo12SwitchInst_O7addCaseEN7gctools9smart_ptrINS_13ConstantInt_OEEENS2_INS_12BasicBlock_OEEE
_ZN4llvm14IndirectBrInst14addDestinationEPNS_10BasicBlockE
_ZNK5llvmo12InvokeInst_O11InvokeInstPEv
_ZN5llvmo13NamedMDNode_O10addOperandEPN4llvm6MDNodeE
_ZN4llvm8Function9addFnAttrENS_9StringRefES1_
_ZN4llvm8Function16setPersonalityFnEPNS_8ConstantE
_ZNK4llvm8Function13doesNotReturnEv
_ZN4llvm8Function16setDoesNotReturnEv
_ZNK4llvm8Function12doesNotThrowEv
_ZN4llvm8Function14setCallingConvEj
_ZNK4llvm8Function14getCallingConvEv
_ZNK4llvm8Function8arg_sizeEv
_ZNK4llvm8Function5emptyEv
_ZN4llvm8Function15eraseFromParentEv
_ZNK4llvm8Function15getFunctionTypeEv
_ZNK5llvmo10Function_O12basic_blocksEv
_ZNK5llvmo10Function_O13getEntryBlockEv
_ZN5llvmo10Function_O16appendBasicBlockEN7gctools9smart_ptrINS_12BasicBlock_OEEE
_ZNK5llvmo10Function_O14Function_equalEN7gctools9smart_ptrIN4core3T_OEEE
_ZN5llvmo10Function_O15getArgumentListEv
_ZNK5llvmo10Function_O10getContextEv
_ZN5llvmo10Function_O13addReturnAttrEN4llvm9Attribute8AttrKindE
_ZN4llvm8Function13setSubprogramEPNS_12DISubprogramE
_ZN4llvm8Function12addParamAttrEjNS_9Attribute8AttrKindE
_ZN4llvm8Function12addAttributeEjNS_9Attribute8AttrKindE
_ZNK4llvm8Function14hasFnAttributeENS_9Attribute8AttrKindE
_ZN4llvm8Function12removeFnAttrENS_9Attribute8AttrKindE
_ZN4llvm8Function9addFnAttrENS_9Attribute8AttrKindE
_ZN4llvm8Function15setDoesNotThrowEv
_ZN4llvm8Function13setHasUWTableEv
_ZN4llvm11GlobalValue9getParentEv
_ZN5llvmo12BasicBlock_O4backEv
_ZNK5llvmo12BasicBlock_O22number_of_instructionsEv
_ZNK5llvmo12BasicBlock_O12instructionsEv
_ZN5llvmo12BasicBlock_O4sizeEv
_ZN5llvmo12BasicBlock_O5emptyEv
_ZN4llvm10BasicBlock13getTerminatorEv
_ZN4llvm10BasicBlock9getParentEv
_ZNK4llvm8Argument12hasByValAttrEv
_ZNK4llvm8Argument11hasNestAttrEv
_ZNK4llvm8Argument14hasNoAliasAttrEv
_ZNK4llvm8Argument16hasStructRetAttrEv
_ZNK5llvmo6Type_O19getArrayNumElementsEv
_ZN5llvmo6Type_O12getPointerToEi
_ZNK5llvmo6Type_O10Type_equalEN7gctools9smart_ptrIN4core3T_OEEE
_ZNK5llvmo6Type_O10getContextEv
_ZNK4llvm4Type16getContainedTypeEj
_ZN5llvmo12StructType_O7setBodyEN7gctools9smart_ptrIN4core3T_OEEES5_
_ZN5llvmo10ClaspJIT_O25createAndRegisterJITDylibERKNSt3__112basic_stringIcNS1_11char_traitsIcEENS1_9allocatorIcEEEE
_ZN5llvmo10ClaspJIT_O15getMainJITDylibEv
_ZN5llvmo10ClaspJIT_O11addIRModuleEN7gctools9smart_ptrINS_10JITDylib_OEEENS2_INS_8Module_OEEENS2_INS_19ThreadSafeContext_OEEEm
_ZN5llvmo10ClaspJIT_O17lookup_all_dylibsERKNSt3__112basic_stringIcNS1_11char_traitsIcEENS1_9allocatorIcEEEE
_ZN5llvmo10ClaspJIT_O6lookupERN4llvm3orc8JITDylibERKNSt3__112basic_stringIcNS5_11char_traitsIcEENS5_9allocatorIcEEEE
_ZN5llvmo11MDBuilder_O28createBranchWeightsTrueFalseEjj
_ZN5llvmo11MDBuilder_O4makeEN7gctools9smart_ptrINS_13LLVMContext_OEEE
_ZNK4core9Package_O10hashTablesEv
_ZN5llvmo11DIBuilder_O20getOrCreateTypeArrayEN7gctools9smart_ptrIN4core6List_VEEE
_ZN5llvmo11DIBuilder_O16getOrCreateArrayEN7gctools9smart_ptrIN4core6List_VEEE
_ZN4llvm9DIBuilder18finalizeSubprogramEPNS_12DISubprogramE
_ZN4llvm9DIBuilder8finalizeEv
_ZN4llvm9DIBuilder23insertDbgValueIntrinsicEPNS_5ValueEPNS_15DILocalVariableEPNS_12DIExpressionEPKNS_10DILocationEPNS_10BasicBlockE
_ZN4llvm9DIBuilder23createParameterVariableEPNS_7DIScopeENS_9StringRefEjPNS_6DIFileEjPNS_6DITypeEbNS_6DINode7DIFlagsE
_ZN4llvm9DIBuilder18createAutoVariableEPNS_7DIScopeENS_9StringRefEPNS_6DIFileEjPNS_6DITypeEbNS_6DINode7DIFlagsEj
_ZN4llvm9DIBuilder20createSubroutineTypeENS_14DITypeRefArrayENS_6DINode7DIFlagsEj
_ZN4llvm9DIBuilder26createUnspecifiedParameterEv
_ZN4llvm9DIBuilder17createNullPtrTypeEv
_ZN4llvm9DIBuilder17createPointerTypeEPNS_6DITypeEyjNS_8OptionalIjEENS_9StringRefE
_ZN4llvm9DIBuilder13createTypedefEPNS_6DITypeENS_9StringRefEPNS_6DIFileEjPNS_7DIScopeEj
_ZN4llvm9DIBuilder15createBasicTypeENS_9StringRefEyjNS_6DINode7DIFlagsE
_ZN4llvm9DIBuilder18createLexicalBlockEPNS_7DIScopeEPNS_6DIFileEjj
_ZN4llvm9DIBuilder14createFunctionEPNS_7DIScopeENS_9StringRefES3_PNS_6DIFileEjPNS_16DISubroutineTypeEjNS_6DINode7DIFlagsENS_12DISubprogram9DISPFlagsENS_24MDTupleTypedArrayWrapperINS_19DITemplateParameterEEEPSA_NSC_INS_6DITypeEEE
_ZN4llvm9DIBuilder10createFileENS_9StringRefES1_NS_8OptionalINS_6DIFile12ChecksumInfoIS1_EEEENS2_IS1_EE
_ZN4llvm9DIBuilder17createCompileUnitEjPNS_6DIFileENS_9StringRefEbS3_jS3_NS_13DICompileUnit17DebugEmissionKindEybbNS4_18DebugNameTableKindEbS3_S3_
_ZN4llvm9DIBuilder16createExpressionENS_8ArrayRefIyEE
_ZN9clasp_ffi13ForeignData_O18PERCENTinc_pointerEN7gctools9smart_ptrIN4core9Integer_OEEE
_ZN9clasp_ffi13ForeignData_O27PERCENTinc_pointer_in_placeEN7gctools9smart_ptrIN4core9Integer_OEEE
_ZN9clasp_ffi13ForeignData_O24PERCENTfree_foreign_dataEv
_ZN9clasp_ffi13ForeignData_O26PERCENTfree_foreign_objectEv
_ZN9clasp_ffi13ForeignData_O27PERCENTforeign_data_addressEv
_ZN9clasp_ffi13ForeignData_O22PERCENTownership_flagsEv
_ZN9clasp_ffi13ForeignData_O11PERCENTkindEv
_ZN9clasp_ffi13ForeignData_O17foreign_data_sizeEv
_ZN9clasp_ffi17ForeignTypeSpec_O30PERCENTset_llvm_type_symbol_fnEN7gctools9smart_ptrIN4core10Function_OEEE
_ZN9clasp_ffi17ForeignTypeSpec_O26PERCENTllvm_type_symbol_fnEv
_ZN9clasp_ffi17ForeignTypeSpec_O25PERCENTfrom_object_fn_ptrEv
_ZN9clasp_ffi17ForeignTypeSpec_O23PERCENTto_object_fn_ptrEv
_ZN9clasp_ffi17ForeignTypeSpec_O26PERCENTfrom_object_fn_nameEv
_ZN9clasp_ffi17ForeignTypeSpec_O24PERCENTto_object_fn_nameEv
_ZN9clasp_ffi17ForeignTypeSpec_O15PERCENTcxx_nameEv
_ZN9clasp_ffi17ForeignTypeSpec_O16PERCENTalignmentEv
_ZN9clasp_ffi17ForeignTypeSpec_O11PERCENTsizeEv
_ZN9clasp_ffi17ForeignTypeSpec_O16PERCENTlisp_nameEv
_ZN9clasp_ffi17ForeignTypeSpec_O18PERCENTlisp_symbolEv
_ZN4core19LambdaListHandler_O35namesOfLexicalVariablesForDebuggingEv
_ZNK4core19LambdaListHandler_O16specialVariablesEv
_ZNK4core19LambdaListHandler_O23namesOfLexicalVariablesEv
_ZNK4core19LambdaListHandler_O24processLambdaListHandlerEv
_ZN4core19LambdaListHandler_O27single_dispatch_on_argumentEN7gctools9smart_ptrINS_8Symbol_OEEE
_ZN4core19LambdaListHandler_O19add_missing_sensorsEv
_ZN4core19LambdaListHandler_O10lambdaListEv
_ZNK4core19LambdaListHandler_O17classifiedSymbolsEv
_ZNK4core19LambdaListHandler_O24numberOfLexicalVariablesEv
_ZNK4core19LambdaListHandler_O14allowOtherKeysEv
_ZNK4core19LambdaListHandler_O20numberOfAuxArgumentsEv
_ZNK4core19LambdaListHandler_O20numberOfKeyArgumentsEv
_ZNK4core19LambdaListHandler_O21numberOfRestArgumentsEv
_ZNK4core19LambdaListHandler_O25numberOfOptionalArgumentsEv
_ZNK4core19LambdaListHandler_O25numberOfRequiredArgumentsEv
_ZNK4core19LambdaListHandler_O29requiredLexicalArgumentsOnlyPEv
_ZNK5llvmo10DebugLoc_O8is_validEv
_ZNK5llvmo10DebugLoc_O8getScopeEv
_ZNK5llvmo10DebugLoc_O6getColEv
_ZNK5llvmo10DebugLoc_O7getLineEv
_ZN4core13RandomState_O16random_state_setERKNSt3__112basic_stringIcNS1_11char_traitsIcEENS1_9allocatorIcEEEE
_ZNK4core13RandomState_O16random_state_getEv
_ZN4core32InvocationHistoryFrameIterator_O9argumentsEv
_ZN4core32InvocationHistoryFrameIterator_O13frame_addressEv
_ZN4core32InvocationHistoryFrameIterator_O11environmentEv
_ZN4core32InvocationHistoryFrameIterator_O12functionNameEv
_ZN4core32InvocationHistoryFrameIterator_O4prevEN7gctools9smart_ptrINS_3T_OEEE
_ZN4core32InvocationHistoryFrameIterator_O7isValidEv
_ZN4core4Test13print_numbersEv
_ZN4core4Test4set3Eiii
_ZN4core4Test4set2Eii
_ZN4core4Test13setMultiplierEi
_ZN4core8Sigset_O16sigset_sigaddsetENS_10SignalEnumE
_ZN4mpip5Mpi_O7Get_tagEv
_ZN4mpip5Mpi_O10Get_sourceEv
_ZN4mpip5Mpi_O9prim_RecvEii
_ZN4mpip5Mpi_O9prim_SendEiiN7gctools9smart_ptrIN4core3T_OEEE
_ZN4mpip5Mpi_O8Get_rankEv
_ZN4mpip5Mpi_O8Get_sizeEv
_ZN4core18NativeVector_int_O6resizeEmi
_ZN4core18NativeVector_int_O8capacityEv
_ZN4core18NativeVector_int_O4sizeEv
_ZN4core18NativeVector_int_O9push_backEi
_ZN4core18NativeVector_int_O5clearEv
_ZN4core18NativeVector_int_O3eltEm
_ZN4core18NativeVector_int_O8setf_eltEmi
_ZN4core18NativeVector_int_O4makeEv
_ZN4core21NativeVector_double_O6resizeEmd
_ZN4core21NativeVector_double_O8capacityEv
_ZN4core21NativeVector_double_O4sizeEv
_ZN4core21NativeVector_double_O9push_backEd
_ZN4core21NativeVector_double_O5clearEv
_ZN4core21NativeVector_double_O3eltEm
_ZN4core21NativeVector_double_O8setf_eltEmd
_ZN4core21NativeVector_double_O4makeEv
_ZN4core20NativeVector_float_O6resizeEmf
_ZN4core20NativeVector_float_O8capacityEv
_ZN4core20NativeVector_float_O4sizeEv
_ZN4core20NativeVector_float_O9push_backEf
_ZN4core20NativeVector_float_O5clearEv
_ZN4core20NativeVector_float_O3eltEm
_ZN4core20NativeVector_float_O8setf_eltEmf
_ZN4core20NativeVector_float_O4makeEv
_ZN4core19SharpEqualWrapper_O30setf_sharp_equal_wrapper_valueEN7gctools9smart_ptrINS_3T_OEEE
_ZNK4core19SharpEqualWrapper_O25sharp_equal_wrapper_valueEv
_ZNK4core13WeakPointer_O5valueEv
_ZNK4core13WeakPointer_O5validEv
_ZNK4core22SingleDispatchMethod_O29singleDispatchMethodDocstringEv
_ZNK4core22SingleDispatchMethod_O28singleDispatchMethodDeclaresEv
_ZNK4core22SingleDispatchMethod_O37singleDispatchMethodLambdaListHandlerEv
_ZNK4core22SingleDispatchMethod_O33singleDispatchMethodReceiverClassEv
_ZNK4core22SingleDispatchMethod_O24singleDispatchMethodNameEv
_ZN4core10SmallMap_O4setfEN7gctools9smart_ptrINS_3T_OEEES4_
_ZN4core10SmallMap_O4findEN7gctools9smart_ptrINS_3T_OEEES4_
_ZNK4core10SmallMap_O8capacityEv
_ZNK4core10SmallMap_O4sizeEv
_ZN4core15SmallMultimap_O8containsEN7gctools9smart_ptrINS_3T_OEEE
_ZN4core15SmallMultimap_O6insertEN7gctools9smart_ptrINS_3T_OEEES4_
_ZN4core15SmallMultimap_O13describeRangeEN7gctools9smart_ptrINS_3T_OEEE
_ZN4core15SmallMultimap_O8describeEv
_ZNK4core15SmallMultimap_O4sizeEv
_ZN5adapt18IndexedObjectBag_O12remove_entryEx
_ZN5adapt18IndexedObjectBag_O5entryEx
_ZN5adapt18IndexedObjectBag_O24set_next_available_entryEN7gctools9smart_ptrIN4core3T_OEEE
_ZN5adapt11ObjectSet_O16addObjectsInConsEN7gctools9smart_ptrIN4core6List_VEEE
_ZN5adapt11ObjectSet_O18relativeComplementEN7gctools9smart_ptrIS0_EE
_ZN5adapt11ObjectSet_O12intersectionEN7gctools9smart_ptrIS0_EE
_ZN5adapt11ObjectSet_O8setUnionEN7gctools9smart_ptrIS0_EE
_ZN5adapt11ObjectSet_O6asConsEv
_ZN5adapt11ObjectSet_O10addObjectsEN7gctools9smart_ptrIS0_EE
_ZN5adapt11ObjectSet_O4sizeEv
_ZN5adapt11ObjectSet_O6insertEN7gctools9smart_ptrIN4core3T_OEEE
_ZN5adapt11ObjectSet_O8containsEN7gctools9smart_ptrIN4core3T_OEEE
_ZN5adapt11SymbolSet_O6asConsEv
_ZN5adapt11SymbolSet_O16cartesianProductEN7gctools9smart_ptrIS0_EE
_ZN5adapt11SymbolSet_O18relativeComplementEN7gctools9smart_ptrIS0_EE
_ZN5adapt11SymbolSet_O12intersectionEN7gctools9smart_ptrIS0_EE
_ZN5adapt11SymbolSet_O8setUnionEN7gctools9smart_ptrIS0_EE
_ZN5adapt11SymbolSet_O5clearEv
_ZN5adapt11SymbolSet_O14containsSubsetEN7gctools9smart_ptrIS0_EE
_ZN5adapt11SymbolSet_O8containsEN7gctools9smart_ptrIN4core8Symbol_OEEE
_ZN5adapt11SymbolSet_O8asStringEv
_ZN5adapt11SymbolSet_O15insertSymbolSetEN7gctools9smart_ptrIS0_EE
_ZN5adapt11SymbolSet_O17insertConsSymbolsEN7gctools9smart_ptrIN4core6List_VEEE
_ZN5adapt11SymbolSet_O9removeAllEN7gctools9smart_ptrIS0_EE
_ZN5adapt11SymbolSet_O6insertEN7gctools9smart_ptrIN4core8Symbol_OEEE
_ZNK5adapt11SymbolSet_O4sizeEv
_ZN5adapt13IterateCons_O4initEN7gctools9smart_ptrIN4core6List_VEEE
_ZN5adapt10QDomNode_O8addChildEN7gctools9smart_ptrIS0_EE
_ZN5adapt10QDomNode_O8asStringEv
_ZN5adapt10QDomNode_O19hasChildrenWithNameERKNSt3__112basic_stringIcNS1_11char_traitsIcEENS1_9allocatorIcEEEE
_ZN5adapt10QDomNode_O9onlyChildEv
_ZN5adapt10QDomNode_O13childWithNameERKNSt3__112basic_stringIcNS1_11char_traitsIcEENS1_9allocatorIcEEEE
_ZN5adapt10QDomNode_O16childrenWithNameERKNSt3__112basic_stringIcNS1_11char_traitsIcEENS1_9allocatorIcEEEE
_ZN5adapt10QDomNode_O16appendToFileNameENSt3__112basic_stringIcNS1_11char_traitsIcEENS1_9allocatorIcEEEE
_ZN5adapt10QDomNode_O15writeToFileNameENSt3__112basic_stringIcNS1_11char_traitsIcEENS1_9allocatorIcEEEE
_ZN5adapt10QDomNode_O8childrenEv
_ZN5adapt10QDomNode_O6isLeafEv
_ZN5adapt10QDomNode_O15addAttributeIntERKNSt3__112basic_stringIcNS1_11char_traitsIcEENS1_9allocatorIcEEEEi
_ZN5adapt10QDomNode_O28addAttributeDoubleScientificERKNSt3__112basic_stringIcNS1_11char_traitsIcEENS1_9allocatorIcEEEEd
_ZN5adapt10QDomNode_O18addAttributeDoubleERKNSt3__112basic_stringIcNS1_11char_traitsIcEENS1_9allocatorIcEEEEdii
_ZN5adapt10QDomNode_O18addAttributeStringERKNSt3__112basic_stringIcNS1_11char_traitsIcEENS1_9allocatorIcEEEES9_
_ZN5adapt10QDomNode_O22getAttributeIntDefaultERKNSt3__112basic_stringIcNS1_11char_traitsIcEENS1_9allocatorIcEEEEi
_ZN5adapt10QDomNode_O18getAttributeDoubleERKNSt3__112basic_stringIcNS1_11char_traitsIcEENS1_9allocatorIcEEEE
_ZN5adapt10QDomNode_O24getAttributeValueNoErrorERKNSt3__112basic_stringIcNS1_11char_traitsIcEENS1_9allocatorIcEEEE
_ZN5adapt10QDomNode_O15removeAttributeERKNSt3__112basic_stringIcNS1_11char_traitsIcEENS1_9allocatorIcEEEE
_ZN5adapt10QDomNode_O12hasAttributeERKNSt3__112basic_stringIcNS1_11char_traitsIcEENS1_9allocatorIcEEEE
_ZN5adapt10QDomNode_O16numberOfChildrenEv
_ZN5adapt10QDomNode_O6saveAsENSt3__112basic_stringIcNS1_11char_traitsIcEENS1_9allocatorIcEEEE
_ZN5adapt10QDomNode_O13setCharactersERKNSt3__112basic_stringIcNS1_11char_traitsIcEENS1_9allocatorIcEEEE
_ZN5adapt10QDomNode_O13getCharactersEv
_ZN5adapt10QDomNode_O13getLineNumberEv
_ZN5adapt10QDomNode_O12setLocalNameERKNSt3__112basic_stringIcNS1_11char_traitsIcEENS1_9allocatorIcEEEE
_ZN5adapt10QDomNode_O12getLocalNameEv
_ZN5adapt10QDomNode_O7isNamedERKNSt3__112basic_stringIcNS1_11char_traitsIcEENS1_9allocatorIcEEEE
_ZN4chem12RingFinder_O25getAllRingsAsListsOfAtomsEv
_ZN4chem12RingFinder_O9findRingsEi
_ZN4chem12RingFinder_O24getNumberOfRingsExpectedEv
_ZN4chem12RingFinder_O13identifyRingsEN7gctools9smart_ptrINS_8Matter_OEEE
_ZN4chem12RingFinder_O4makeEN7gctools9smart_ptrINS_10Molecule_OEEE
_ZN4chem17AtomIdToAtomMap_O4walkEN7gctools9smart_ptrIN4core10Function_OEEE
_ZNK4chem17AtomIdToAtomMap_O10lookupAtomERKNS_6AtomIdE
_ZNK4chem8Matter_O23allProperTorsionsAsListEb
_ZNK4chem8Matter_O25allImproperTorsionsAsListEb
_ZNK4chem8Matter_O15allAnglesAsListEb
_ZNK4chem8Matter_O14allBondsAsListEb
_ZNK4chem8Matter_O14allAtomsAsListEb
_ZN4chem8Matter_O23allAtomsOfElementAsListENS_7ElementE
_ZN4chem8Matter_O9aliasAtomEN7gctools9smart_ptrINS_7Alias_OEEE
_ZN4chem8Matter_O12aliasResidueEN7gctools9smart_ptrINS_7Alias_OEEE
_ZN4chem8Matter_O8allAtomsEv
_ZN4chem8Matter_O14contentsAsListEv
_ZN4chem8Matter_O29matterCalculateBoundingCuboidEd
_ZN4chem8Matter_O16momentOfGeometryEv
_ZN4chem8Matter_O21momentOfInertiaTensorEv
_ZN4chem8Matter_O15geometricCenterEv
_ZN4chem8Matter_O30setAtomAliasesForResiduesNamedEN7gctools9smart_ptrIN4core6List_VEEES5_
_ZN4chem8Matter_O15setAllAtomMasksEi
_ZN4chem8Matter_O17translateAllAtomsERK7Vector3
_ZN4chem8Matter_O12contentIndexEN7gctools9smart_ptrIS0_EE
_ZN4chem8Matter_O18contentIndexWithIdEi
_ZN4chem8Matter_O16hasContentWithIdEi
_ZN4chem8Matter_O13contentWithIdEi
_ZN4chem8Matter_O20contentIndexWithNameEN7gctools9smart_ptrIN4core8Symbol_OEEE
_ZN4chem8Matter_O20contentWithNameOrNilEN7gctools9smart_ptrIN4core8Symbol_OEEE
_ZN4chem8Matter_O15contentWithNameEN7gctools9smart_ptrIN4core8Symbol_OEEE
_ZN4chem8Matter_O20connectAllCloseAtomsEv
_ZN4chem8Matter_O29calculateVirtualAtomPositionsEv
_ZN4chem8Matter_O17firstAtomWithNameEN7gctools9smart_ptrIN4core8Symbol_OEEE
_ZN4chem8Matter_O11hasPropertyEN7gctools9smart_ptrIN4core8Symbol_OEEE
_ZN4chem8Matter_O20getPropertyOrDefaultEN7gctools9smart_ptrIN4core8Symbol_OEEENS2_INS3_3T_OEEE
_ZN4chem8Matter_O11getPropertyEN7gctools9smart_ptrIN4core8Symbol_OEEE
_ZN4chem8Matter_O15setPropertyTrueEN7gctools9smart_ptrIN4core8Symbol_OEEE
_ZN4chem8Matter_O11setPropertyEN7gctools9smart_ptrIN4core8Symbol_OEEENS2_INS3_3T_OEEE
_ZN4chem8Matter_O13clearPropertyEN7gctools9smart_ptrIN4core8Symbol_OEEE
_ZNK4chem8Matter_O18propertiesAsStringEv
_ZNK4chem8Matter_O13allRestraintsEv
_ZN4chem8Matter_O18hasContentWithNameEN7gctools9smart_ptrIN4core8Symbol_OEEE
_ZN4chem8Matter_O10hasContentEN7gctools9smart_ptrIS0_EE
_ZN4chem8Matter_O11contentSizeEv
_ZNK4chem8Matter_O9contentAtEm
_ZN4chem8Matter_O16getName_notConstEv
_ZN4chem8Matter_O7setNameEN7gctools9smart_ptrIN4core8Symbol_OEEE
_ZN4chem8Matter_O13setPropertiesEN7gctools9smart_ptrIN4core6List_VEEE
_ZN4chem8Matter_O13getPropertiesEv
_ZN4chem8Matter_O5setIdEi
_ZNK4chem8Matter_O5getIdEv
_ZN4chem6Atom_O24setAbsoluteConfigurationENS_17ConfigurationEnumEN7gctools9smart_ptrIS0_EES4_S4_
_ZN4chem6Atom_O14isConfigurableEv
_ZN4chem6Atom_O17localSpanningTreeEj
_ZN4chem6Atom_O10getValenceEv
_ZNK4chem6Atom_O10inRingSizeEi
_ZN4chem6Atom_O22getBondedHydrogenCountEv
_ZN4chem6Atom_O20getIntegerAtomicMassEv
_ZN4chem6Atom_O15getAtomicNumberEv
_ZN4chem6Atom_O20getHeavyAtomBondListEv
_ZN4chem6Atom_O11bondsAsListEv
_ZN4chem6Atom_O14totalBondOrderEv
_ZN4chem6Atom_O11getBondListEv
_ZN4chem6Atom_O17bondedAtomsAsListEv
_ZN4chem6Atom_O11bondOrderToEN7gctools9smart_ptrIS0_EE
_ZN4chem6Atom_O10isBondedToEN7gctools9smart_ptrIS0_EE
_ZN4chem6Atom_O23isBondedToWithBondOrderEN7gctools9smart_ptrIS0_EENS_13BondOrderEnumE
_ZN4chem6Atom_O24getConfigurationAsStringEv
_ZN4chem6Atom_O23setPositionInNanometersE7Vector3
_ZNK4chem6Atom_O18getElementAsSymbolEv
_ZNK4chem6Atom_O18getElementAsStringEv
_ZN4chem6Atom_O14removeAllBondsEv
_ZN4chem6Atom_O12removeBondToEN7gctools9smart_ptrIS0_EE
_ZN4chem6Atom_O50isBondedToElementHybridizationElementHybridizationENS_7ElementENS_13HybridizationES1_S2_
_ZN4chem6Atom_O30isBondedToElementHybridizationENS_7ElementENS_13HybridizationE
_ZNK4chem6Atom_O16hasBondWithOrderENS_13BondOrderEnumE
_ZN4chem6Atom_O22isBondedToElementOrderENS_7ElementENS_13BondOrderEnumE
_ZN4chem6Atom_O22bondedNeighborWithNameEN7gctools9smart_ptrIN4core8Symbol_OEEE
_ZN4chem6Atom_O19isBondedToAtomNamedEN7gctools9smart_ptrIN4core8Symbol_OEEE
_ZN4chem6Atom_O30getNeighborsByRelativePriorityEN7gctools9smart_ptrIN4core11HashTable_OEEE
_ZNK4chem6Atom_O19getRelativePriorityEN7gctools9smart_ptrIN4core11HashTable_OEEE
_ZN4chem6Atom_O12getNameIndexEv
_ZN4chem6Atom_O12bondToSingleEN7gctools9smart_ptrIS0_EE
_ZN4chem6Atom_O14bondToOrderIntEN7gctools9smart_ptrIS0_EEi
_ZN4chem6Atom_O6bondToEN7gctools9smart_ptrIS0_EENS_13BondOrderEnumE
_ZN4chem6Atom_O9getBondToEN7gctools9smart_ptrIS0_EE
_ZN4chem6Atom_O34fillInImplicitHydrogensWithResidueEN7gctools9smart_ptrINS_9Residue_OEEE
_ZN4chem6Atom_O27createImplicitHydrogenNamesEv
_ZN4chem6Atom_O19numberOfOpenValenceEv
_ZN4chem6Atom_O12coordinationEv
_ZNK4chem6Atom_O13numberOfBondsEv
_ZN4chem6Atom_O11bondedOrderEi
_ZN4chem6Atom_O14bondedNeighborEi
_ZN4chem6Atom_O16setConfigurationENS_17ConfigurationEnumE
_ZNK4chem6Atom_O10Atom_equalEN7gctools9smart_ptrIN4core3T_OEEE
_ZN4chem6Atom_O36calculateStereochemicalConfigurationEN7gctools9smart_ptrIN4core11HashTable_OEEE
_ZN4chem6Atom_O19perturbAtomPositionEd
_ZN4chem6Atom_O21randomizeAtomPositionEd
_ZN4chem6Atom_O16getConfigurationEv
_ZN4chem6Atom_O22getStereochemistryTypeEv
_ZN4chem6Atom_O22setStereochemistryTypeENS_19StereochemistryTypeE
_ZN4chem6Atom_O8flagsSetEi
_ZN4chem6Atom_O17setCovalentRadiusEd
_ZN4chem6Atom_O17getCovalentRadiusEv
_ZN4chem6Atom_O12setVdwRadiusEd
_ZN4chem6Atom_O12getVdwRadiusEv
_ZN4chem6Atom_O13setTempFactorEd
_ZN4chem6Atom_O13getTempFactorEv
_ZN4chem6Atom_O12setOccupancyEd
_ZN4chem6Atom_O12getOccupancyEv
_ZN4chem6Atom_O9setChargeEd
_ZN4chem6Atom_O9getChargeEv
_ZN4chem6Atom_O13setIonizationEi
_ZN4chem6Atom_O13getIonizationEv
_ZN4chem6Atom_O16getMembershipAr5Ev
_ZN4chem6Atom_O16getMembershipAr4Ev
_ZN4chem6Atom_O16getMembershipAr3Ev
_ZN4chem6Atom_O16getMembershipAr2Ev
_ZN4chem6Atom_O16getMembershipAr1Ev
_ZN4chem6Atom_O16setMembershipAr5Eb
_ZN4chem6Atom_O16setMembershipAr4Eb
_ZN4chem6Atom_O16setMembershipAr3Eb
_ZN4chem6Atom_O16setMembershipAr2Eb
_ZN4chem6Atom_O16setMembershipAr1Eb
_ZN4chem6Atom_O14setPositionXYZEddd
_ZN4chem6Atom_O11setPositionERK7Vector3
_ZN4chem6Atom_O23getPositionInNanometersEv
_ZNK4chem6Atom_O19atomWithinAngstromsEN7gctools9smart_ptrIS0_EEf
_ZN4chem6Atom_O11getPositionEv
_ZN4chem6Atom_O10setElementENS_7ElementE
_ZNK4chem6Atom_O10getElementEv
_ZN4chem6Atom_O16setHybridizationENS_13HybridizationE
_ZN4chem6Atom_O16getHybridizationEv
_ZN4chem6Atom_O7setTypeEN7gctools9smart_ptrIN4core3T_OEEE
_ZN4chem6Atom_O7getTypeEv
_ZN4chem6Atom_O22setRingMembershipCountEi
_ZN4chem6Atom_O22getRingMembershipCountEv
_ZN4chem6Atom_O16setf_needs_buildEb
_ZNK4chem6Atom_O11needs_buildEv
_ZNK4chem6Atom_O8isInRingEv
_ZNK4chem6Atom_O12testAnyFlagsEm
_ZNK4chem6Atom_O12testAllFlagsEm
_ZN4chem6Atom_O12turnOffFlagsEm
_ZN4chem6Atom_O11turnOnFlagsEm
_ZN4chem6Atom_O10resetFlagsEv
_ZN4chem6Atom_O8getFlagsEv
_ZN4chem6Atom_O8setAliasEN7gctools9smart_ptrIN4core8Symbol_OEEE
_ZN4chem6Atom_O8getAliasEv
_ZNK4chem6Atom_O8atomNameEv
_ZN4chem6Atom_O13setIsAromaticEb
_ZNK4chem6Atom_O10isAromaticEv
_ZN4chem9Residue_O33useAtomCoordinatesToDefineAnchorsEv
_ZN4chem9Residue_O12atomWithNameEN7gctools9smart_ptrIN4core8Symbol_OEEEb
_ZN4chem9Residue_O23getAtomNamesAsSymbolSetEv
_ZN4chem9Residue_O25removeAtomDontDeleteBondsEN7gctools9smart_ptrINS_6Atom_OEEE
_ZN4chem9Residue_O12containsAtomEN7gctools9smart_ptrINS_6Atom_OEEE
_ZN4chem9Residue_O21removeAtomDeleteBondsEN7gctools9smart_ptrINS_6Atom_OEEE
_ZN4chem9Residue_O20removeAtomsWithNamesEN7gctools9smart_ptrIN4core6List_VEEE
_ZN4chem9Residue_O15addMonomerAliasEN7gctools9smart_ptrIN4core8Symbol_OEEE
_ZN4chem9Residue_O7addAtomEN7gctools9smart_ptrINS_6Atom_OEEE
_ZN4chem9Residue_O9firstAtomEv
_ZN4chem9Residue_O13hasAtomWithIdEi
_ZN4chem9Residue_O10atomWithIdEi
_ZN4chem9Residue_O15hasAtomWithNameEN7gctools9smart_ptrIN4core8Symbol_OEEE
_ZN4chem9Residue_O12setNetChargeEi
_ZN4chem9Residue_O12getNetChargeEv
_ZN4chem9Residue_O21getFileSequenceNumberEv
_ZN4chem9Residue_O10setPdbNameEN7gctools9smart_ptrIN4core8Symbol_OEEE
_ZN4chem9Residue_O10getPdbNameEv
_ZN4chem9Residue_O17setf_residue_typeEN7gctools9smart_ptrIN4core8Symbol_OEEE
_ZN4chem9Residue_O12residue_typeEv
_ZNK4chem10Molecule_O16force_field_nameEv
_ZN4chem10Molecule_O21setf_force_field_nameEN7gctools9smart_ptrIN4core3T_OEEE
_ZN4chem10Molecule_O23getFirstResidueWithNameEN7gctools9smart_ptrIN4core8Symbol_OEEE
_ZN4chem10Molecule_O24numberOfResiduesWithNameEN7gctools9smart_ptrIN4core8Symbol_OEEE
_ZN4chem10Molecule_O28moveAllAtomsIntoFirstResidueEv
_ZN4chem10Molecule_O13removeResidueEN7gctools9smart_ptrINS_8Matter_OEEE
_ZN4chem10Molecule_O23testMoleculeConsistancyEv
_ZN4chem10Molecule_O12residueCountEv
_ZN4chem10Molecule_O16hasResidueWithIdEi
_ZN4chem10Molecule_O13residueWithIdEi
_ZN4chem10Molecule_O10getResidueEi
_ZN4chem10Molecule_O12firstResidueEv
_ZN4chem10Molecule_O18setf_molecule_typeEN7gctools9smart_ptrIN4core8Symbol_OEEE
_ZN4chem10Molecule_O13molecule_typeEv
_ZN4chem11AtomTable_O40push_back_excluded_atom_indices_and_sortEN7gctools9smart_ptrIN4core23ComplexVector_int32_t_OEEEm
_ZN4chem11AtomTable_O21constructFromMoleculeEN7gctools9smart_ptrINS_10Molecule_OEEENS2_IN4core3T_OEEES7_
_ZN4chem11AtomTable_O11getAtomFlagEm
_ZN4chem11AtomTable_O11setAtomFlagEmm
_ZNK4chem11AtomTable_O20atom_table_moleculesEv
_ZNK4chem11AtomTable_O19atom_table_residuesEv
_ZNK4chem11AtomTable_O29atom_table_atoms_per_moleculeEv
_ZNK4chem11AtomTable_O24atom_table_residue_namesEv
_ZNK4chem11AtomTable_O27atom_table_residue_pointersEv
_ZN4chem11AtomTable_O39makUnboundNonbondForceFieldForAggregateEv
_ZN4chem11AtomTable_O32setNonbondForceFieldForAggregateEN7gctools9smart_ptrIN4core3T_OEEE
_ZNK4chem11AtomTable_O35nonbondForceFieldForAggregateBoundPEv
_ZNK4chem11AtomTable_O29nonbondForceFieldForAggregateEv
_ZN4chem11AtomTable_O21makUnboundBoundingBoxEv
_ZN4chem11AtomTable_O14setBoundingBoxEN7gctools9smart_ptrIN4core3T_OEEE
_ZNK4chem11AtomTable_O17boundingBoxBoundPEv
_ZNK4chem11AtomTable_O11boundingBoxEv
_ZN4chem11AtomTable_O23makUnboundAggregateNameEv
_ZN4chem11AtomTable_O16setAggregateNameEN7gctools9smart_ptrIN4core3T_OEEE
_ZNK4chem11AtomTable_O19aggregateNameBoundPEv
_ZNK4chem11AtomTable_O13aggregateNameEv
_ZN4chem11AtomTable_O37makUnbound_totalNumberOfMoleculesNSPMEv
_ZN4chem11AtomTable_O30set_totalNumberOfMoleculesNSPMEm
_ZNK4chem11AtomTable_O33totalNumberOfMoleculesNSPM_boundPEv
_ZNK4chem11AtomTable_O26totalNumberOfMoleculesNSPMEv
_ZN4chem11AtomTable_O35makUnbound_finalSoluteResidueIPTRESEv
_ZN4chem11AtomTable_O28set_finalSoluteResidueIPTRESEm
_ZNK4chem11AtomTable_O31finalSoluteResidueIPTRES_boundPEv
_ZNK4chem11AtomTable_O24finalSoluteResidueIPTRESEv
_ZN4chem11AtomTable_O37makUnbound_firstSolventMoleculeNSPSOLEv
_ZN4chem11AtomTable_O30set_firstSolventMoleculeNSPSOLEm
_ZNK4chem11AtomTable_O33firstSolventMoleculeNSPSOL_boundPEv
_ZNK4chem11AtomTable_O26firstSolventMoleculeNSPSOLEv
_ZN4chem11AtomTable_O9dumpTermsEv
_ZN4chem11AtomTable_O11addAtomInfoEN7gctools9smart_ptrINS_6Atom_OEEENS2_IN5units10Quantity_OEEES7_ij
_ZN4chem11AtomTable_O17getAtomIndexOrNilEN7gctools9smart_ptrINS_6Atom_OEEE
_ZN4chem11AtomTable_O19getAtomTableIndicesEv
_ZN4chem11AtomTable_O32getCoordinateIndexForAtomAtIndexEm
_ZN4chem11AtomTable_O18getCoordinateIndexEN7gctools9smart_ptrINS_6Atom_OEEE
_ZN4chem11AtomTable_O25setf_atom_table_moleculesEN7gctools9smart_ptrIN4core7Array_OEEE
_ZN4chem11AtomTable_O24setf_atom_table_residuesEN7gctools9smart_ptrIN4core7Array_OEEE
_ZN4chem11AtomTable_O34setf_atom_table_atoms_per_moleculeEN7gctools9smart_ptrIN4core23ComplexVector_int32_t_OEEE
_ZN4chem11AtomTable_O29setf_atom_table_residue_namesEN7gctools9smart_ptrIN4core17ComplexVector_T_OEEE
_ZN4chem11AtomTable_O32setf_atom_table_residue_pointersEN7gctools9smart_ptrIN4core23ComplexVector_int32_t_OEEE
_ZN4chem11AtomTable_O17elt_atomic_numberEi
_ZN4chem11AtomTable_O14elt_type_indexEi
_ZN4chem11AtomTable_O8elt_massEi
_ZN4chem11AtomTable_O10elt_chargeEi
_ZN4chem11AtomTable_O32elt_atom_coordinate_index_times3Ei
_ZN4chem11AtomTable_O8elt_atomEi
_ZN4chem11AtomTable_O13elt_atom_typeEi
_ZN4chem11AtomTable_O13elt_atom_nameEi
_ZN4chem11AtomTable_O28calculate_excluded_atom_listEv
_ZN4chem11AtomTable_O20getNumberOfMoleculesEv
_ZN4chem11AtomTable_O16getNumberOfAtomsEv
_ZN4chem11AtomTable_O4makeEv
_ZN4chem6Bond_O24getOrderFromAtomAsStringEN7gctools9smart_ptrINS_6Atom_OEEE
_ZNK4chem6Bond_O12getOtherAtomEN7gctools9smart_ptrINS_6Atom_OEEE
_ZN4chem6Bond_O11hasPropertyEN7gctools9smart_ptrIN4core8Symbol_OEEE
_ZN4chem6Bond_O11getPropertyEN7gctools9smart_ptrIN4core8Symbol_OEEENS2_INS3_3T_OEEE
_ZN4chem6Bond_O11setPropertyEN7gctools9smart_ptrIN4core8Symbol_OEEENS2_INS3_3T_OEEE
_ZN4chem6Bond_O16getOrderFromAtomEN7gctools9smart_ptrINS_6Atom_OEEE
_ZN4chem6Bond_O15setOrderFromIntEi
_ZN4chem6Bond_O21getOrderFromAtomAsIntEN7gctools9smart_ptrINS_6Atom_OEEE
_ZNK4chem6Bond_O8getAtom2Ev
_ZNK4chem6Bond_O8getAtom1Ev
_ZNK4chem8CDNode_O8getLabelEv
_ZNK4chem8CDNode_O11getPositionEv
_ZNK4chem8CDNode_O7getAtomEv
_ZN4chem8CDBond_O10getEndNodeEv
_ZN4chem8CDBond_O12getBeginNodeEv
_ZNK4chem8CDBond_O8getOrderEv
_ZN4chem12CDFragment_O19asConstitutionAtomsEv
_ZNK4chem12CDFragment_O8getBondsEv
_ZN4chem12CDFragment_O11getMoleculeEv
_ZN4chem12CDFragment_O19getConstitutionNameEv
_ZN4chem10ChemDraw_O20getSubSetOfFragmentsEN7gctools9smart_ptrIN5adapt11SymbolSet_OEEE
_ZN4chem10ChemDraw_O12getFragmentsEv
_ZN4chem10ChemDraw_O11asAggregateEv
_ZNK4chem10ChemDraw_O12ChemDrawCodeEv
_ZN4chem10ChemDraw_O18allFragmentsAsListEv
_ZNK4chem8Entity_O25minimalRepresentativeListEv
_ZNK4chem9Isoname_O8topologyEv
_ZNK4chem9Isoname_O6isomerEv
_ZNK4chem9Isoname_O4nameEv
_ZN4chem9Isoname_O12make_isonameEN7gctools9smart_ptrIN4core8Symbol_OEEENS2_INS_10Topology_OEEEx
_ZN4chem9Monomer_O21isMonomerContextValidEv
_ZNK4chem9Monomer_O21numberOfStereoisomersEv
_ZN4chem9Monomer_O15addTopologyNameEN7gctools9smart_ptrIN4core8Symbol_OEEE
_ZNK4chem9Monomer_O23currentStereoisomerNameEv
_ZN4chem9Monomer_O23removeCouplingToMonomerEN7gctools9smart_ptrIS0_EE
_ZN4chem9Monomer_O14addOutCouplingEN7gctools9smart_ptrINS_10Coupling_OEEE
_ZN4chem9Monomer_O13setInCouplingEN7gctools9smart_ptrINS_10Coupling_OEEE
_ZN4chem9Monomer_O11addCouplingEN7gctools9smart_ptrIN4core8Symbol_OEEENS2_INS_10Coupling_OEEE
_ZN4chem9Monomer_O15getConstitutionEv
_ZN4chem9Monomer_O12getPlugNamedEN7gctools9smart_ptrIN4core8Symbol_OEEE
_ZN4chem9Monomer_O13hasInCouplingEv
_ZN4chem9Monomer_O13getInCouplingEv
_ZN4chem9Monomer_O15currentTopologyEv
_ZN4chem9Monomer_O25getSpecificMonomerContextEv
_ZN4chem9Monomer_O21throwIfBadConnectionsEv
_ZN4chem9Monomer_O22checkForBadConnectionsEv
_ZN4chem9Monomer_O27plugNamesAndCouplingsAsListEv
_ZN4chem9Monomer_O24getGeneralMonomerContextEv
_ZN4chem9Monomer_O23getCouplingWithPlugNameEN7gctools9smart_ptrIN4core8Symbol_OEEE
_ZN4chem9Monomer_O23hasCouplingWithPlugNameEN7gctools9smart_ptrIN4core8Symbol_OEEE
_ZN4chem9Monomer_O14removeCouplingEN7gctools9smart_ptrINS_10Coupling_OEEE
_ZN4chem9Monomer_O17getSequenceNumberEv
_ZNK4chem9Monomer_O15plugNamesAsListEv
_ZN4chem9Monomer_O5getIdEv
_ZN4chem9Monomer_O5setIdEN7gctools9smart_ptrIN4core8Symbol_OEEE
_ZN4chem9Monomer_O11makeMonomerEN7gctools9smart_ptrIN4core6List_VEEE
_ZN4chem15CandoDatabase_O17setf_findTopologyEN7gctools9smart_ptrIN4core3T_OEEENS2_INS_10Topology_OEEE
_ZN4chem15CandoDatabase_O14walk_topologysEN7gctools9smart_ptrIN4core10Function_OEEE
_ZN4chem15CandoDatabase_O26allSpecificMonomerContextsEv
_ZN4chem15CandoDatabase_O6saveAsERKNSt3__112basic_stringIcNS1_11char_traitsIcEENS1_9allocatorIcEEEE
_ZN4chem15CandoDatabase_O17recognizesContextEN7gctools9smart_ptrINS_16MonomerContext_OEEE
_ZN4chem15CandoDatabase_O3getEN7gctools9smart_ptrINS_16MonomerContext_OEEE
_ZN4chem15CandoDatabase_O28getMonomerCoordinatesWithKeyEN7gctools9smart_ptrIN4core8Symbol_OEEE
_ZN4chem15CandoDatabase_O31recognizesMonomerCoordinatesKeyEN7gctools9smart_ptrIN4core8Symbol_OEEE
_ZN4chem15CandoDatabase_O28monomerCoordinatesKeysAsListEv
_ZN4chem15CandoDatabase_O30uniqueMonomerCoordinatesAsListEv
_ZN4chem15CandoDatabase_O21addMonomerCoordinatesEN7gctools9smart_ptrINS_20MonomerCoordinates_OEEE
_ZN4chem15CandoDatabase_O19recognizesNameOrPdbEN7gctools9smart_ptrIN4core8Symbol_OEEE
_ZN4chem15CandoDatabase_O44getMonomersForSetOrConstitutionOrMonomerNameEN7gctools9smart_ptrIN4core8Symbol_OEEE
_ZNK4chem15CandoDatabase_O28expandEntityNamesToTerminalsEN7gctools9smart_ptrIN5adapt11SymbolSet_OEEE
_ZNK4chem15CandoDatabase_O27expandEntityNameToTerminalsEN7gctools9smart_ptrIN4core8Symbol_OEEE
_ZNK4chem15CandoDatabase_O9getEntityEN7gctools9smart_ptrIN4core8Symbol_OEEE
_ZN4chem15CandoDatabase_O40recognizesSetOrConstitutionOrMonomerNameEN7gctools9smart_ptrIN4core8Symbol_OEEE
_ZN4chem15CandoDatabase_O27getRepresentedEntityNameSetEN7gctools9smart_ptrIN4core8Symbol_OEEE
_ZN4chem15CandoDatabase_O16getEntityNameSetEN7gctools9smart_ptrIN4core8Symbol_OEEE
_ZN4chem15CandoDatabase_O29recognizesFrameRecognizerNameEN7gctools9smart_ptrIN4core8Symbol_OEEE
_ZN4chem15CandoDatabase_O18addFrameRecognizerEN7gctools9smart_ptrINS_17FrameRecognizer_OEEE
_ZN4chem15CandoDatabase_O34recognizesRepresentedEntityNameSetEN7gctools9smart_ptrIN4core8Symbol_OEEE
_ZN4chem15CandoDatabase_O31representedEntityNameSetsAsListEv
_ZN4chem15CandoDatabase_O9addEntityEN7gctools9smart_ptrINS_8Entity_OEEE
_ZN4chem15CandoDatabase_O19constitutionsAsListEv
_ZN4chem15CandoDatabase_O20recognizesEntityNameEN7gctools9smart_ptrIN4core8Symbol_OEEE
_ZN4chem15CandoDatabase_O18getFrameRecognizerEN7gctools9smart_ptrIN4core8Symbol_OEEE
_ZN4chem15CandoDatabase_O7getNameEv
_ZN4chem15CandoDatabase_O4makeEN7gctools9smart_ptrIN4core8Symbol_OEEE
_ZNK4chem15ChemInfoMatch_O17tags_as_hashtableEv
_ZNK4chem15ChemInfoMatch_O14tags_as_vectorEv
_ZN4chem15ChemInfoMatch_O19getAtomWithTagOrNilEN7gctools9smart_ptrIN4core3T_OEEE
_ZN4chem15ChemInfoMatch_O14getAtomWithTagEN7gctools9smart_ptrIN4core3T_OEEE
_ZN4chem15ChemInfoMatch_O7matchesEv
_ZNK4chem15ChemInfoMatch_O11tag_historyEv
_ZN4chem15ChemInfoMatch_O3tagEN7gctools9smart_ptrIN4core3T_OEEE
_ZN4chem17WildElementDict_O14addWildNameMapEN7gctools9smart_ptrIN4core8Symbol_OEEES5_
_ZN4chem17WildElementDict_O11addWildNameEN7gctools9smart_ptrIN4core8Symbol_OEEE
_ZN4chem14ChemInfoNode_O11setf_boundsEN7gctools9smart_ptrIN4core3T_OEEE
_ZN4chem14ChemInfoNode_O6boundsEv
_ZNK4chem14ChemInfoNode_O5getIdEv
_ZNK4chem21AtomOrBondMatchNode_O9getRingIdEv
_ZN4chem21AtomOrBondMatchNode_O9setRingIdEi
_ZNK4chem21AtomOrBondMatchNode_O11getRingTestEv
_ZN4chem21AtomOrBondMatchNode_O11setRingTestENS_12RingTestEnumE
_ZNK4chem9Logical_O16logical_operatorEv
_ZN4chem9Logical_O8setRightEN7gctools9smart_ptrINS_14ChemInfoNode_OEEE
_ZN4chem9Logical_O7setLeftEN7gctools9smart_ptrINS_14ChemInfoNode_OEEE
_ZNK4chem9Logical_O8getRightEv
_ZNK4chem9Logical_O7getLeftEv
_ZN4chem9Logical_O27create_logHighPrecedenceAndEN7gctools9smart_ptrIN4core3T_OEEES5_
_ZN4chem9Logical_O26create_logLowPrecedenceAndEN7gctools9smart_ptrIN4core3T_OEEES5_
_ZN4chem9Logical_O13create_logNotEN7gctools9smart_ptrIN4core3T_OEEE
_ZN4chem9Logical_O12create_logOrEN7gctools9smart_ptrIN4core3T_OEEES5_
_ZN4chem9Logical_O18create_logIdentityEN7gctools9smart_ptrIN4core3T_OEEE
_ZNK4chem13BondLogical_O19bondLogicalOperatorEv
_ZN4chem13BondLogical_O8setRightEN7gctools9smart_ptrIN4core3T_OEEE
_ZNK4chem13BondLogical_O8getRightEv
_ZN4chem13BondLogical_O7setLeftEN7gctools9smart_ptrIN4core3T_OEEE
_ZNK4chem13BondLogical_O7getLeftEv
_ZN4chem13BondLogical_O31create_bondLogHighPrecedenceAndEN7gctools9smart_ptrIN4core3T_OEEES5_
_ZN4chem13BondLogical_O30create_bondLogLowPrecedenceAndEN7gctools9smart_ptrIN4core3T_OEEES5_
_ZN4chem13BondLogical_O16create_bondLogOrEN7gctools9smart_ptrIN4core3T_OEEES5_
_ZN4chem13BondLogical_O17create_bondLogNotEN7gctools9smart_ptrIN4core3T_OEEE
_ZN4chem13BondLogical_O22create_bondLogIdentityEN7gctools9smart_ptrIN4core3T_OEEE
_ZNK4chem10BondTest_O15bondTestGetBondEv
_ZN4chem10BondTest_O4makeENS_8BondEnumE
_ZN4chem16BondToAtomTest_O11setAtomTestEN7gctools9smart_ptrIN4core3T_OEEE
_ZN4chem16BondToAtomTest_O25setfBondTypeIfOptimizableENS_8BondEnumE
_ZNK4chem16BondToAtomTest_O11bondMatcherEv
_ZNK4chem16BondToAtomTest_O17bondMatcherBoundPEv
_ZN4chem16BondToAtomTest_O8bondTypeEv
_ZN4chem16BondToAtomTest_O25makeBondMatcherToAtomTestEN7gctools9smart_ptrINS_13BondMatcher_OEEENS2_IN4core3T_OEEE
_ZN4chem16BondToAtomTest_O18makeBondToAtomTestENS_8BondEnumEN7gctools9smart_ptrIN4core3T_OEEE
_ZN4chem27AntechamberBondToAtomTest_O11create_argsEN7gctools9smart_ptrIN4core8Symbol_OEEEiNS2_INS_21AtomOrBondMatchNode_OEEES5_
_ZNK4chem10AtomTest_O12getSymbolArgEv
_ZN4chem10AtomTest_O9getIntArgEv
_ZN4chem10AtomTest_O8set_testENS_12AtomTestEnumE
_ZN4chem10AtomTest_O12atomTestTypeEv
_ZN4chem10AtomTest_O25create_no_ring_membershipEv
_ZN4chem10AtomTest_O17create_ring_size2Eii
_ZN4chem10AtomTest_O24create_ring_connectivityEi
_ZN4chem10AtomTest_O16create_ring_sizeEi
_ZN4chem10AtomTest_O15create_ar_levelEi
_ZN4chem10AtomTest_O25create_bonded_to_previousENS_8BondEnumE
_ZN4chem10AtomTest_O29create_not_bonded_to_previousENS_8BondEnumE
_ZN4chem10AtomTest_O14create_in_bondENS_8BondEnumEi
_ZN4chem10AtomTest_O15create_in_bond1ENS_8BondEnumE
_ZN4chem10AtomTest_O23create_SAPPredicateNameEN7gctools9smart_ptrIN4core8Symbol_OEEE
_ZN4chem10AtomTest_O17create_SAPElementERKNSt3__112basic_stringIcNS1_11char_traitsIcEENS1_9allocatorIcEEEE
_ZN4chem10AtomTest_O25create_SAPAromaticElementERKNSt3__112basic_stringIcNS1_11char_traitsIcEENS1_9allocatorIcEEEE
_ZN4chem10AtomTest_O17create_SAPAtomMapEi
_ZN4chem10AtomTest_O17create_SAPValenceEi
_ZN4chem10AtomTest_O25create_SAPTransitionMetalEi
_ZN4chem10AtomTest_O21create_SAPTotalHCountEi
_ZN4chem10AtomTest_O26create_SAPRingConnectivityEi
_ZN4chem10AtomTest_O18create_SAPRingTestEi
_ZN4chem10AtomTest_O18create_SAPRingSizeEi
_ZN4chem10AtomTest_O29create_SAPRingMembershipCountEi
_ZN4chem10AtomTest_O21create_SAPResidueTestEi
_ZN4chem10AtomTest_O30create_SAPPositiveFormalChargeEi
_ZN4chem10AtomTest_O24create_SAPPositiveChargeEi
_ZN4chem10AtomTest_O30create_SAPNegativeFormalChargeEi
_ZN4chem10AtomTest_O24create_SAPNegativeChargeEi
_ZN4chem10AtomTest_O18create_SAPLonePairEi
_ZN4chem10AtomTest_O24create_SAPImplicitHCountEi
_ZN4chem10AtomTest_O28create_SAPHeavyAtomTotalBondEi
_ZN4chem10AtomTest_O21create_SAPGroupNumberEi
_ZN4chem10AtomTest_O16create_SAPDegreeEi
_ZN4chem10AtomTest_O22create_SAPConnectivityEi
_ZN4chem10AtomTest_O22create_SAPAtomicNumberEi
_ZN4chem10AtomTest_O20create_SAPAtomicMassEi
_ZN4chem10AtomTest_O28create_SAPAromaticPiElectronEi
_ZN4chem10AtomTest_O18create_SAPWildCardEv
_ZN4chem10AtomTest_O23create_SAPPiBondOrbitalEv
_ZN4chem10AtomTest_O28create_SAPChiralityClockwiseEv
_ZN4chem10AtomTest_O32create_SAPChiralityAntiClockwiseEv
_ZN4chem10AtomTest_O18create_SAPAromaticEv
_ZN4chem10AtomTest_O19create_SAPAliphaticEv
_ZN4chem10AtomTest_O32create_SAPElectronegativeElementEv
_ZN4chem7Chain_O14chain_get_tailEv
_ZN4chem7Chain_O14chain_set_tailEN7gctools9smart_ptrIN4core3T_OEEE
_ZN4chem7Chain_O14chain_set_headEN7gctools9smart_ptrINS_15BondMatchNode_OEEE
_ZN4chem7Chain_O18create_empty_chainEv
_ZN4chem7Chain_O11create_headEN7gctools9smart_ptrIN4core3T_OEEE
_ZN4chem7Chain_O16create_head_tailEN7gctools9smart_ptrIN4core3T_OEEES5_
_ZN4chem8Branch_O16branch_set_rightEN7gctools9smart_ptrIN4core3T_OEEE
_ZN4chem8Branch_O15branch_set_leftEN7gctools9smart_ptrIN4core3T_OEEE
_ZN4chem8Branch_O11create_leftEN7gctools9smart_ptrINS_19BondListMatchNode_OEEE
_ZN4chem8Branch_O17create_left_rightEN7gctools9smart_ptrIN4core3T_OEEES5_
_ZN4chem12SmartsRoot_O4makeERKNSt3__112basic_stringIcNS1_11char_traitsIcEENS1_9allocatorIcEEEEN7gctools9smart_ptrINS_14ChemInfoNode_OEEEm
_ZN4chem8Smirks_O7productEv
_ZN4chem8Smirks_O8reactantEv
_ZN4chem8Smirks_O4makeEN7gctools9smart_ptrINS_12SmartsRoot_OEEES4_
_ZN4chem15MoleculeGraph_O10walk_edgesEN7gctools9smart_ptrIN4core3T_OEEE
_ZN4chem15MoleculeGraph_O13walk_verticesEN7gctools9smart_ptrIN4core3T_OEEE
_ZN4chem15MoleculeGraph_O8add_edgeEmmNS_13BondOrderEnumE
_ZN4chem15MoleculeGraph_O10get_vertexEm
_ZN4chem15MoleculeGraph_O12vertex_indexEN7gctools9smart_ptrIN4core3T_OEEE
_ZN4chem15MoleculeGraph_O10add_vertexEN7gctools9smart_ptrIN4core3T_OEEE
_ZN4chem15MoleculeGraph_O9num_edgesEv
_ZN4chem15MoleculeGraph_O12num_verticesEv
_ZN4chem16CipPrioritizer_O32setStereochemicalTypeForAllAtomsEN7gctools9smart_ptrINS_8Matter_OEEE
_ZN4chem16CipPrioritizer_O53assignCahnIngoldPrelogPriorityToAtomsRelativePriorityEN7gctools9smart_ptrINS_8Matter_OEEENS2_IN4core11HashTable_OEEE
_ZN4chem18RestrainedPiBond_O10setPiAtomYEN7gctools9smart_ptrIN4core8Symbol_OEEE
_ZN4chem18RestrainedPiBond_O10getPiAtomYEv
_ZN4chem18RestrainedPiBond_O10setPiAtomXEN7gctools9smart_ptrIN4core8Symbol_OEEE
_ZN4chem18RestrainedPiBond_O10getPiAtomXEv
_ZN4chem18RestrainedPiBond_O16setConfigurationEN7gctools9smart_ptrIN4core8Symbol_OEEE
_ZN4chem18RestrainedPiBond_O16getConfigurationEv
_ZN4geom10OVector3_O25setUsingBondAngleDihedralEdN7gctools9smart_ptrIS0_EEdS3_dS3_
_ZN4geom10OVector3_O17setUsingBondAngleEdN7gctools9smart_ptrIS0_EEdS3_
_ZN4geom10OVector3_O12setUsingBondEdN7gctools9smart_ptrIS0_EE
_ZN4geom10OVector3_O8distanceERK7Vector3
_ZN4geom10OVector3_O5angleERK7Vector3S3_
_ZN4geom10OVector3_O8dihedralERK7Vector3S3_S3_
_ZN4geom10OVector3_O10normalizedEv
_ZN4geom10OVector3_O11timesScalarEd
_ZN4geom10OVector3_O3addEN7gctools9smart_ptrIN4core6List_VEEE
_ZN4geom10OVector3_O10dotProductERK7Vector3
_ZN4geom10OVector3_O12crossProductERK7Vector3
_ZN4geom10OVector3_O9magnitudeEv
_ZN4geom10OVector3_O6_PLUS_ERK7Vector3
_ZN4geom10OVector3_O3subERK7Vector3
_ZN4geom10OVector3_O4getZEv
_ZN4geom10OVector3_O4getYEv
_ZN4geom10OVector3_O4getXEv
_ZN4geom10OVector3_O7setAll3Eddd
_ZN4chem29ConformationCollectionEntry_O28extractCoordinatesFromMatterEN7gctools9smart_ptrINS_8Matter_OEEE
_ZN4chem29ConformationCollectionEntry_O24writeCoordinatesToMatterEN7gctools9smart_ptrINS_8Matter_OEEE
_ZN4chem29ConformationCollectionEntry_O17setAllCoordinatesEN7gctools9smart_ptrIN4geom24SimpleVectorCoordinate_OEEE
_ZN4chem29ConformationCollectionEntry_O25setConformationCollectionEN7gctools9smart_ptrINS_24ConformationCollection_OEEE
_ZN4chem29ConformationCollectionEntry_O25getConformationCollectionEv
_ZN4chem24ConformationCollection_O10firstEntryEv
_ZN4chem24ConformationCollection_O8getEntryEj
_ZN4chem24ConformationCollection_O13getEntryIndexEN7gctools9smart_ptrINS_29ConformationCollectionEntry_OEEE
_ZN4chem24ConformationCollection_O49addConformationExplorerSelectedStageConformationsEN7gctools9smart_ptrINS_22ConformationExplorer_OEEE
_ZN4chem24ConformationCollection_O42addConformationExplorerLatestConformationsEN7gctools9smart_ptrINS_22ConformationExplorer_OEEE
_ZN4chem24ConformationCollection_O25addConformationCollectionEN7gctools9smart_ptrIS0_EE
_ZNK4chem24ConformationCollection_O13entriesAsListEv
_ZN4chem24ConformationCollection_O16numberOfAllAtomsEv
_ZN4chem24ConformationCollection_O15numberOfEntriesEv
_ZN4chem32ConformationExplorerEntryStage_O28extractCoordinatesFromMatterEN7gctools9smart_ptrINS_8Matter_OEEE
_ZN4chem32ConformationExplorerEntryStage_O24writeCoordinatesToMatterEN7gctools9smart_ptrINS_8Matter_OEEE
_ZN4chem32ConformationExplorerEntryStage_O50setFinalCoordinatesAsMoveableWithinSuperposeEngineEN7gctools9smart_ptrINS_17SuperposeEngine_OEEE
_ZN4chem32ConformationExplorerEntryStage_O47setFinalCoordinatesAsFixedWithinSuperposeEngineEN7gctools9smart_ptrINS_17SuperposeEngine_OEEE
_ZN4chem32ConformationExplorerEntryStage_O57setSuperposableCoordinatesAsMoveableWithinSuperposeEngineEN7gctools9smart_ptrINS_17SuperposeEngine_OEEE
_ZN4chem32ConformationExplorerEntryStage_O54setSuperposableCoordinatesAsFixedWithinSuperposeEngineEN7gctools9smart_ptrINS_17SuperposeEngine_OEEE
_ZN4chem32ConformationExplorerEntryStage_O9getBinderEv
_ZN4chem32ConformationExplorerEntryStage_O11setCompleteEb
_ZN4chem32ConformationExplorerEntryStage_O10isCompleteEv
_ZN4chem32ConformationExplorerEntryStage_O12setStageNameEN7gctools9smart_ptrIN4core3T_OEEE
_ZN4chem32ConformationExplorerEntryStage_O12getStageNameEv
_ZN4chem32ConformationExplorerEntryStage_O19setBasedOnStageNameEN7gctools9smart_ptrIN4core3T_OEEE
_ZN4chem32ConformationExplorerEntryStage_O19getBasedOnStageNameEv
_ZN4chem32ConformationExplorerEntryStage_O8setModelEN7gctools9smart_ptrIN4core3T_OEEE
_ZN4chem32ConformationExplorerEntryStage_O8getModelEv
_ZN4chem32ConformationExplorerEntryStage_O24setExternalInterfaceNameEN7gctools9smart_ptrIN4core3T_OEEE
_ZN4chem32ConformationExplorerEntryStage_O24getExternalInterfaceNameEv
_ZN4chem32ConformationExplorerEntryStage_O13setEnergyKCalEd
_ZN4chem32ConformationExplorerEntryStage_O13getEnergyKCalEv
_ZN4chem32ConformationExplorerEntryStage_O19getFinalCoordinatesEv
_ZN4chem27ConformationExplorerEntry_O13getEntryStageEN7gctools9smart_ptrIN4core3T_OEEE
_ZN4chem27ConformationExplorerEntry_O21hasEntryStageWithNameEN7gctools9smart_ptrIN4core3T_OEEE
_ZN4chem27ConformationExplorerEntry_O25getLastCompleteEntryStageEv
_ZN4chem27ConformationExplorerEntry_O35getOrCreateLastIncompleteEntryStageEN7gctools9smart_ptrIN4core3T_OEEE
_ZN4chem27ConformationExplorerEntry_O27alreadyHasLastCompleteStageEN7gctools9smart_ptrIN4core3T_OEEE
_ZN4chem27ConformationExplorerEntry_O17getLastEntryStageEv
_ZN4chem27ConformationExplorerEntry_O18lastEntryStageNameEv
_ZN4chem27ConformationExplorerEntry_O16setSelectedStageEN7gctools9smart_ptrINS_32ConformationExplorerEntryStage_OEEE
_ZN4chem27ConformationExplorerEntry_O16getSelectedStageEv
_ZNK4chem27ConformationExplorerEntry_O19getUniqueEntryIndexEv
_ZN4chem27ConformationExplorerEntry_O16hasSelectedStageEv
_ZN4chem27ConformationExplorerEntry_O23getConformationExplorerEv
_ZN4chem22ConformationExplorer_O29sortByEnergyAscendingForStageEN7gctools9smart_ptrIN4core3T_OEEE
_ZN4chem22ConformationExplorer_O39alignAllConformationsToTheFirstForStageEN7gctools9smart_ptrIN4core3T_OEEE
_ZN4chem22ConformationExplorer_O31findClosestMatchingConformationEN7gctools9smart_ptrINS_27ConformationExplorerMatch_OEEENS2_INS_8Matter_OEEENS2_IN4core3T_OEEEd
_ZN4chem22ConformationExplorer_O28getClosestMatchingEntryStageEN7gctools9smart_ptrINS_27ConformationExplorerMatch_OEEE
_ZN4chem22ConformationExplorer_O23getClosestMatchingEntryEN7gctools9smart_ptrINS_27ConformationExplorerMatch_OEEE
_ZN4chem22ConformationExplorer_O10firstEntryEv
_ZN4chem22ConformationExplorer_O8getEntryEj
_ZN4chem22ConformationExplorer_O13getEntryIndexEN7gctools9smart_ptrINS_27ConformationExplorerEntry_OEEE
_ZN4chem22ConformationExplorer_O6saveAsERKNSt3__112basic_stringIcNS1_11char_traitsIcEENS1_9allocatorIcEEEE
_ZN4chem22ConformationExplorer_O4sortEN7gctools9smart_ptrIN4core3T_OEEENS2_INS3_8Symbol_OEEE
_ZN4chem22ConformationExplorer_O22superposeAllHeavyAtomsEv
_ZN4chem22ConformationExplorer_O16addSuperposeAtomEN7gctools9smart_ptrINS_6Atom_OEEE
_ZN4chem22ConformationExplorer_O19clearSuperposeAtomsEv
_ZN4chem22ConformationExplorer_O13entriesAsListEv
_ZN4chem22ConformationExplorer_O11appendEntryEN7gctools9smart_ptrINS_27ConformationExplorerEntry_OEEE
_ZN4chem22ConformationExplorer_O15numberOfEntriesEv
_ZN4chem22ConformationExplorer_O9getMatterEv
_ZN4chem22ConformationExplorer_O9getBinderEv
_ZN4chem27ConformationExplorerMatch_O20getClosestMatchIndexEv
_ZN4chem27ConformationExplorerMatch_O18getClosestMatchRmsEv
_ZN4chem27ConformationExplorerMatch_O10getMatchesEv
_ZNK4chem18ConstitutionAtom_O8atomTypeEv
_ZNK4chem18ConstitutionAtom_O8atomNameEv
_ZN4chem19ConstitutionAtoms_O12buildResidueEv
_ZNK4chem19ConstitutionAtoms_O23constitutionAtomsAsListEv
_ZNK4chem19ConstitutionAtoms_O5indexEN7gctools9smart_ptrIN4core8Symbol_OEEE
_ZN4chem19ConstitutionAtoms_O12atomWithNameEN7gctools9smart_ptrIN4core8Symbol_OEEEb
_ZN4chem19ConstitutionAtoms_O20atomNamesAsSymbolSetEv
_ZNK4chem19ConstitutionAtoms_O10atomWithIdEi
_ZNK4chem19ConstitutionAtoms_O13numberOfAtomsEv
_ZN4chem18CoordinateSystem_O6sameAsEN7gctools9smart_ptrIS0_EE
_ZN4chem18CoordinateSystem_O20copyCoordinateSystemEv
_ZN4chem18CoordinateSystem_O19transformWithMatrixERK6Matrix
_ZN4chem18CoordinateSystem_O15defineCanonicalEv
_ZN4chem18CoordinateSystem_O26defineFromCoordinateSystemEN7gctools9smart_ptrIS0_EE
_ZN4chem18CoordinateSystem_O12defineRandomEv
_ZN4chem18CoordinateSystem_O30defineForVectorsOriginXDirZDirERK7Vector3S3_S3_
_ZN4chem18CoordinateSystem_O33defineForVectorsOriginZDirXZPlaneERK7Vector3S3_S3_
_ZN4chem18CoordinateSystem_O33defineForVectorsOriginXDirXYPlaneERK7Vector3S3_S3_
_ZN4chem18CoordinateSystem_O30defineForVectorsOriginXDirYDirERK7Vector3S3_S3_
_ZN4chem18CoordinateSystem_O20defineForAtomVectorsERK7Vector3S3_S3_
_ZN4chem18CoordinateSystem_O14defineForAtomsEN7gctools9smart_ptrINS_6Atom_OEEES4_S4_
_ZN4chem18CoordinateSystem_O9canonicalEv
_ZN4chem18CoordinateSystem_O17matrixToCanonicalEv
_ZN4chem18CoordinateSystem_O19matrixFromCanonicalEv
_ZN4chem18CoordinateSystem_O4getZEv
_ZN4chem18CoordinateSystem_O4getYEv
_ZN4chem18CoordinateSystem_O4getXEv
_ZN4chem18CoordinateSystem_O9getOriginEv
_ZN4chem18CoordinateSystem_O9setOriginERK7Vector3
_ZN4chem21DirectionalCoupling_O16setTargetMonomerEN7gctools9smart_ptrINS_9Monomer_OEEE
_ZN4chem21DirectionalCoupling_O16setSourceMonomerEN7gctools9smart_ptrINS_9Monomer_OEEE
_ZN4chem21DirectionalCoupling_O12setPlugNamesEN7gctools9smart_ptrIN4core8Symbol_OEEES5_
_ZN4chem21DirectionalCoupling_O24getTargetMonomerPlugNameEv
_ZN4chem21DirectionalCoupling_O24getSourceMonomerPlugNameEv
_ZN4chem21DirectionalCoupling_O16getTargetMonomerEv
_ZN4chem21DirectionalCoupling_O16getSourceMonomerEv
_ZNK4chem21DirectionalCoupling_O17getTargetPlugNameEv
_ZNK4chem21DirectionalCoupling_O17getSourcePlugNameEv
_ZN4chem14RingCoupling_O8getPlug2Ev
_ZN4chem14RingCoupling_O8getPlug1Ev
_ZN4chem14RingCoupling_O11setMonomer2EN7gctools9smart_ptrINS_9Monomer_OEEE
_ZN4chem14RingCoupling_O11setMonomer1EN7gctools9smart_ptrINS_9Monomer_OEEE
_ZN4chem17EnergyComponent_O16debugLogAsStringEv
_ZNK4chem17EnergyComponent_O11evaluationsEv
_ZN4chem17EnergyComponent_O17getErrorThresholdEv
_ZN4chem17EnergyComponent_O17setErrorThresholdEd
_ZN4chem17EnergyComponent_O33setDebug_NumberOfTermsToCalculateEi
_ZN4chem17EnergyComponent_O12disableDebugEv
_ZN4chem17EnergyComponent_O11enableDebugEv
_ZN4chem17EnergyComponent_O10getDebugOnEv
_ZN4chem17EnergyComponent_O7disableEv
_ZN4chem17EnergyComponent_O6enableEv
_ZNK4chem17EnergyComponent_O9isEnabledEv
_ZN4chem17ScoringFunction_O23calculateEnergyAndForceEv
_ZN4chem17ScoringFunction_O15calculateEnergyEv
_ZN4chem17ScoringFunction_O19setf_velocity_scaleEddd
_ZN4chem17ScoringFunction_O19scoringFunctionNameEv
_ZN4chem17ScoringFunction_O22setScoringFunctionNameEN7gctools9smart_ptrIN4core3T_OEEE
_ZN4chem16EnergyFunction_O16debugLogAsStringEv
_ZN4chem16EnergyFunction_O23summarizeEnergyAsStringEv
_ZN4chem16EnergyFunction_O44summarizeBeyondThresholdInteractionsAsStringEv
_ZN4chem16EnergyFunction_O17writeForceToAtomsEN7gctools9smart_ptrIN4core21SimpleVector_double_OEEE
_ZN4chem16EnergyFunction_O27addTermsForListOfRestraintsEN7gctools9smart_ptrINS_12ForceField_OEEENS2_IN4core6List_VEEENS2_INS5_3T_OEEE
_ZN4chem16EnergyFunction_O37generateRestraintEnergyFunctionTablesEN7gctools9smart_ptrINS_8Matter_OEEENS2_IN4core3T_OEEES7_S7_
_ZN4chem16EnergyFunction_O35generateNonbondEnergyFunctionTablesEbN7gctools9smart_ptrINS_8Matter_OEEENS2_IN4core3T_OEEES7_
_ZN4chem16EnergyFunction_O36generateStandardEnergyFunctionTablesEN7gctools9smart_ptrINS_8Matter_OEEENS2_INS_20CombinedForceField_OEEENS2_IN4core3T_OEEE
_ZN4chem16EnergyFunction_O28defineForMatterWithAtomTypesEN7gctools9smart_ptrINS_8Matter_OEEEbNS2_IN4core3T_OEEES7_
_ZN4chem16EnergyFunction_O15defineForMatterEN7gctools9smart_ptrINS_8Matter_OEEEbNS2_IN4core3T_OEEEb
_ZN4chem16EnergyFunction_O21makUnboundBoundingBoxEv
_ZN4chem16EnergyFunction_O14setBoundingBoxEN7gctools9smart_ptrINS_13BoundingBox_OEEE
_ZNK4chem16EnergyFunction_O17boundingBoxBoundPEv
_ZNK4chem16EnergyFunction_O11boundingBoxEv
_ZN4chem16EnergyFunction_O10getMessageEv
_ZN4chem16EnergyFunction_O14getTotalEnergyEv
_ZN4chem16EnergyFunction_O20getMissingParametersEv
_ZN4chem16EnergyFunction_O20hasMissingParametersEv
_ZN4chem16EnergyFunction_O33getFixedNonbondRestraintComponentEv
_ZN4chem16EnergyFunction_O29getDihedralRestraintComponentEv
_ZN4chem16EnergyFunction_O27getAnchorRestraintComponentEv
_ZN4chem16EnergyFunction_O27getChiralRestraintComponentEv
_ZN4chem16EnergyFunction_O19getNonbondComponentEv
_ZN4chem16EnergyFunction_O20getDihedralComponentEv
_ZN4chem16EnergyFunction_O17getAngleComponentEv
_ZN4chem16EnergyFunction_O19getStretchComponentEv
_ZN4chem16EnergyFunction_O9getMatterEv
_ZNK4chem16EnergyFunction_O9atomTableEv
_ZN4chem16EnergyFunction_O4makeEN7gctools9smart_ptrIN4core3T_OEEEbS5_bS5_
_ZNK4chem11FFNonbond_O7getMassEv
_ZNK4chem11FFNonbond_O15getEpsilon_kCalEv
_ZNK4chem11FFNonbond_O13getEpsilon_kJEv
_ZN4chem11FFNonbond_O15setEpsilon_kCalEd
_ZN4chem11FFNonbond_O13setEpsilon_kJEd
_ZNK4chem11FFNonbond_O20getRadius_NanometersEv
_ZNK4chem11FFNonbond_O19getRadius_AngstromsEv
_ZN4chem11FFNonbond_O20setRadius_NanometersEd
_ZN4chem11FFNonbond_O19setRadius_AngstromsEd
_ZN4chem11FFNonbond_O7setMassEd
_ZN4chem11FFNonbond_O17setPolarizabilityEd
_ZNK4chem11FFNonbond_O7getTypeEv
_ZN4chem11FFNonbond_O7setTypeEN7gctools9smart_ptrIN4core8Symbol_OEEE
_ZN4chem11FFNonbond_O14make_FFNonbondEN7gctools9smart_ptrIN4core8Symbol_OEEEdddddddddNS_17DonorAcceptorEnumE
_ZNK4chem13FFNonbondDb_O13numberOfTypesEv
_ZN4chem13FFNonbondDb_O26getFFNonbondUsingTypeIndexEj
_ZN4chem13FFNonbondDb_O33ffnonbond_find_atom_type_positionEN7gctools9smart_ptrIN4core8Symbol_OEEE
_ZN4chem13FFNonbondDb_O13findTypeIndexEN7gctools9smart_ptrIN4core8Symbol_OEEE
_ZN4chem13FFNonbondDb_O18FFNonbond_findTypeEN7gctools9smart_ptrIN4core8Symbol_OEEE
_ZN4chem13FFNonbondDb_O7hasTypeEN7gctools9smart_ptrIN4core8Symbol_OEEE
_ZN4chem13FFNonbondDb_O3addEN7gctools9smart_ptrINS_11FFNonbond_OEEE
_ZNK4chem12FFTypeRule_O7getTestEv
_ZNK4chem12FFTypeRule_O7getTypeEv
_ZN4chem12FFTypeRule_O4makeEN7gctools9smart_ptrINS_6Root_OEEENS2_IN4core3T_OEEE
_ZN4chem11FFTypesDb_O7getRuleEj
_ZN4chem11FFTypesDb_O9atomTypesEN7gctools9smart_ptrINS_8Matter_OEEE
_ZN4chem11FFTypesDb_O11assignTypesEN7gctools9smart_ptrINS_8Matter_OEEE
_ZN4chem11FFTypesDb_O10assignTypeEN7gctools9smart_ptrINS_6Atom_OEEE
_ZN4chem11FFTypesDb_O13numberOfRulesEv
_ZN4chem11FFTypesDb_O3addEN7gctools9smart_ptrINS_12FFTypeRule_OEEE
_ZN4chem13FFStretchDb_O8findTermEN7gctools9smart_ptrINS_6Atom_OEEES4_
_ZN4chem13FFStretchDb_O3addEN7gctools9smart_ptrINS_11FFStretch_OEEE
_ZN4chem8FFPtor_O11setPhaseRadEid
_ZNK4chem8FFPtor_O11getPhaseRadEi
_ZN4chem8FFPtor_O9setV_kCalEid
_ZNK4chem8FFPtor_O9getV_kCalEi
_ZN4chem8FFPtor_O7setV_kJEid
_ZN4chem8FFPtor_O14setPtorCommentEN7gctools9smart_ptrIN4core3T_OEEE
_ZNK4chem8FFPtor_O11ptorCommentEv
_ZNK4chem8FFPtor_O10getHasScnbEv
_ZNK4chem8FFPtor_O10getHasSceeEv
_ZNK4chem8FFPtor_O7getScnbEv
_ZNK4chem8FFPtor_O7getSceeEv
_ZN4chem8FFPtor_O10setHasScnbEb
_ZN4chem8FFPtor_O10setHasSceeEb
_ZN4chem8FFPtor_O7setScnbEd
_ZN4chem8FFPtor_O7setSceeEd
_ZN4chem10FFPtorDb_O9addFFPtorEN7gctools9smart_ptrINS_8FFPtor_OEEE
_ZN4chem12ForceField_O15forceFieldMergeEN7gctools9smart_ptrIS0_EE
_ZN4chem12ForceField_O10setFFVdwDbEN7gctools9smart_ptrINS_9FFVdwDb_OEEE
_ZN4chem12ForceField_O14setFFNonbondDbEN7gctools9smart_ptrINS_13FFNonbondDb_OEEE
_ZN4chem12ForceField_O11setFFPtorDbEN7gctools9smart_ptrINS_10FFPtorDb_OEEE
_ZN4chem12ForceField_O11setFFItorDbEN7gctools9smart_ptrINS_10FFItorDb_OEEE
_ZN4chem12ForceField_O12setFFAngleDbEN7gctools9smart_ptrINS_11FFAngleDb_OEEE
_ZN4chem12ForceField_O14setFFStretchDbEN7gctools9smart_ptrINS_13FFStretchDb_OEEE
_ZN4chem12ForceField_O11setFFTypeDbEN7gctools9smart_ptrINS_11FFTypesDb_OEEE
_ZN4chem12ForceField_O9setInfoDbEN7gctools9smart_ptrINS_8InfoDb_OEEE
_ZN4chem12ForceField_O8setTitleERKNSt3__112basic_stringIcNS1_11char_traitsIcEENS1_9allocatorIcEEEE
_ZN4chem12ForceField_O11assignTypesEN7gctools9smart_ptrINS_8Matter_OEEE
_ZN4chem12ForceField_O8getVdwDbEv
_ZN4chem12ForceField_O12getNonbondDbEv
_ZN4chem12ForceField_O9getPtorDbEv
_ZN4chem12ForceField_O9getItorDbEv
_ZN4chem12ForceField_O10getAngleDbEv
_ZN4chem12ForceField_O12getStretchDbEv
_ZN4chem12ForceField_O8getTypesEv
_ZN4chem12ForceField_O4makeEv
_ZN4chem20CombinedForceField_O21assignForceFieldTypesEN7gctools9smart_ptrINS_8Matter_OEEE
_ZN4chem20CombinedForceField_O5clearEv
_ZNK4chem20CombinedForceField_O17forceFieldsAsListEv
_ZN4chem20CombinedForceField_O22addShadowingForceFieldEN7gctools9smart_ptrINS_12ForceField_OEEENS2_IN4core3T_OEEE
_ZN4chem20CombinedForceField_O4makeEv
_ZN4chem17FrameRecognizer_O12getGroupNameEv
_ZN4chem17FrameRecognizer_O17getRecognizerNameEv
_ZN4chem17FrameRecognizer_O10recognizesEN7gctools9smart_ptrINS_6Atom_OEEE
_ZN4chem17FrameRecognizer_O13compileSmartsERKNSt3__112basic_stringIcNS1_11char_traitsIcEENS1_9allocatorIcEEEE
_ZN4chem17FrameRecognizer_O9getSmartsEv
_ZNK4chem13BoundingBox_O16get_cuboid_rsizeEv
_ZN4chem13BoundingBox_O10intersectsEN7gctools9smart_ptrIS0_EE
_ZNK4chem13BoundingBox_O19get_z_angle_degreesEv
_ZNK4chem13BoundingBox_O19get_y_angle_degreesEv
_ZNK4chem13BoundingBox_O19get_x_angle_degreesEv
_ZNK4chem13BoundingBox_O11get_z_widthEv
_ZNK4chem13BoundingBox_O11get_y_widthEv
_ZNK4chem13BoundingBox_O11get_x_widthEv
_ZNK4chem13BoundingBox_O18normalize_positionERK7Vector3
_ZNK4chem13BoundingBox_O10max_cornerEv
_ZNK4chem13BoundingBox_O10min_cornerEv
_ZNK4chem13BoundingBox_O23get_bounding_box_centerEv
_ZNK4chem13BoundingBox_O31get_bounding_box_angles_degreesEv
_ZNK4chem13BoundingBox_O24get_bounding_box_rwidthsEv
_ZNK4chem13BoundingBox_O23get_bounding_box_widthsEv
_ZN4chem13BoundingBox_O4makeEN7gctools9smart_ptrIN4core6List_VEEENS2_INS3_3T_OEEES7_
_ZNK4chem11Aggregate_O16force_field_nameEv
_ZN4chem11Aggregate_O21setf_force_field_nameEN7gctools9smart_ptrIN4core3T_OEEE
_ZN4chem11Aggregate_O17firstMoleculeNameEv
_ZN4chem11Aggregate_O13firstMoleculeEv
_ZN4chem11Aggregate_O11writeToFileERKNSt3__112basic_stringIcNS1_11char_traitsIcEENS1_9allocatorIcEEEE
_ZN4chem11Aggregate_O26firstMoleculeWithAtomNamedEN7gctools9smart_ptrIN4core8Symbol_OEEE
_ZN4chem11Aggregate_O17separateMoleculesEv
_ZN4chem11Aggregate_O14removeMoleculeEN7gctools9smart_ptrINS_10Molecule_OEEE
_ZN4chem11Aggregate_O30atomsWithChimeraSpecificationsERKNSt3__112basic_stringIcNS1_11char_traitsIcEENS1_9allocatorIcEEEE
_ZN4chem11Aggregate_O21makUnboundBoundingBoxEv
_ZN4chem11Aggregate_O14setBoundingBoxEN7gctools9smart_ptrINS_13BoundingBox_OEEE
_ZNK4chem11Aggregate_O17boundingBoxBoundPEv
_ZNK4chem11Aggregate_O11boundingBoxEv
_ZN4chem11Aggregate_O6saveAsERKNSt3__112basic_stringIcNS1_11char_traitsIcEENS1_9allocatorIcEEEE
_ZN4chem11Aggregate_O9moleculesEv
_ZN4chem11Aggregate_O11addMoleculeEN7gctools9smart_ptrINS_10Molecule_OEEE
_ZN4chem15IterateMatter_O7advanceEv
_ZN4chem15IterateMatter_O14initTopAndGoalEN7gctools9smart_ptrINS_8Matter_OEEEi
_ZN4chem14IterateBonds_O12getBondOrderEv
_ZN4chem14IterateBonds_O8getAtom2Ev
_ZN4chem14IterateBonds_O8getAtom1Ev
_ZN4chem11Minimizer_O7restartEv
_ZN4chem11Minimizer_O21configurationAsStringEv
_ZN4chem11Minimizer_O40writeIntermediateResultsToEnergyFunctionEv
_ZN4chem11Minimizer_O8minimizeEv
_ZN4chem11Minimizer_O16resetAndMinimizeEv
_ZN4chem11Minimizer_O31evaluateEnergyAndForceManyTimesEi
_ZN4chem11Minimizer_O17setEnergyFunctionEN7gctools9smart_ptrINS_17ScoringFunction_OEEE
_ZN4chem11Minimizer_O31disablePrintIntermediateResultsEv
_ZN4chem11Minimizer_O30enablePrintIntermediateResultsEmm
_ZN4chem11Minimizer_O10setDebugOnEb
_ZN4chem11Minimizer_O18useDefaultSettingsEv
_ZN4chem11Minimizer_O19throwMinimizerErrorEv
_ZN4chem11Minimizer_O19throwMinimizerStuckEv
_ZN4chem11Minimizer_O10set_frozenEN7gctools9smart_ptrIN4core3T_OEEE
_ZN4chem11Minimizer_O28set_initial_line_search_stepEd
_ZN4chem11Minimizer_O14statusAsStringEv
_ZN4chem11Minimizer_O27setTruncatedNewtonToleranceEd
_ZN4chem11Minimizer_O29setConjugateGradientToleranceEd
_ZN4chem11Minimizer_O27setSteepestDescentToleranceEd
_ZN4chem11Minimizer_O38setMaximumNumberOfTruncatedNewtonStepsEi
_ZN4chem11Minimizer_O40setMaximumNumberOfConjugateGradientStepsEi
_ZN4chem11Minimizer_O38setMaximumNumberOfSteepestDescentStepsEi
_ZN4chem11Minimizer_O15setStepCallbackEN7gctools9smart_ptrIN4core3T_OEEE
_ZN4chem11Minimizer_O11getRMSForceEv
_ZN4chem11Minimizer_O12getIterationEv
_ZN4chem11Minimizer_O11statusAsIntEv
_ZN4chem11Minimizer_O17getEnergyFunctionEv
_ZN4chem19EntityNameSetBase_O22getMonomerNamesOrderedEv
_ZN4chem19EntityNameSetBase_O34getUnrecognizedMonomerNamesOrderedEv
_ZN4chem19EntityNameSetBase_O19recognizesNameOrPdbEN7gctools9smart_ptrIN4core8Symbol_OEEE
_ZN4chem19EntityNameSetBase_O18getOnlyMonomerNameEv
_ZN4chem19EntityNameSetBase_O23getMonomerNamesAsStringEv
_ZN4chem19EntityNameSetBase_O15getMonomerNamesEv
_ZN4chem19EntityNameSetBase_O13setGroupNamesEN7gctools9smart_ptrIN5adapt11SymbolSet_OEEE
_ZN4chem19EntityNameSetBase_O19contractEntityNamesEN7gctools9smart_ptrIN5adapt11SymbolSet_OEEE
_ZN4chem19EntityNameSetBase_O27expandToTerminalEntityNamesEv
_ZN4chem19EntityNameSetBase_O18getUnExpandedNamesEv
_ZN4chem19EntityNameSetBase_O21testEntityNameSetBaseEv
_ZNK4chem15EntityNameSet_O7getNameEv
_ZN4chem15EntityNameSet_O7setNameEN7gctools9smart_ptrIN4core8Symbol_OEEE
_ZN4chem22EntityNameSetWithCap_O12addGroupNameEN7gctools9smart_ptrIN4core8Symbol_OEEE
_ZNK4chem16MonomerContext_O11getNeighborEN7gctools9smart_ptrIN4core8Symbol_OEEE
_ZNK4chem16MonomerContext_O12getPlugNamesEv
_ZN4chem16MonomerContext_O19setFocusFromMonomerEN7gctools9smart_ptrINS_9Monomer_OEEE
_ZN4chem16MonomerContext_O31recognizesMonomerAndEnvironmentEN7gctools9smart_ptrINS_9Monomer_OEEE
_ZN4chem16MonomerContext_O22getAllSpecificContextsEv
_ZN4chem16MonomerContext_O18getAllSpecificKeysEv
_ZN4chem16MonomerContext_O6getKeyEv
_ZN4chem16MonomerContext_O11addNeighborEN7gctools9smart_ptrIN4core8Symbol_OEEENS2_INS_19EntityNameSetBase_OEEE
_ZN4chem16MonomerContext_O8getFocusEv
_ZN4chem16MonomerContext_O8setFocusEN7gctools9smart_ptrINS_19EntityNameSetBase_OEEE
_ZN4chem20MonomerCoordinates_O14testExtractionEN7gctools9smart_ptrINS_10Topology_OEEENS2_INS_11Aggregate_OEEENS2_INS_9Monomer_OEEE
_ZN4chem20MonomerCoordinates_O30defineFromConformationExplorerEN7gctools9smart_ptrINS_10Topology_OEEENS2_INS_22ConformationExplorer_OEEENS2_INS_9Monomer_OEEEj
_ZN4chem20MonomerCoordinates_O10getContextEv
_ZN4chem20MonomerCoordinates_O10getCommentEv
_ZN4chem20MonomerCoordinates_O10setCommentERKNSt3__112basic_stringIcNS1_11char_traitsIcEENS1_9allocatorIcEEEE
_ZN4chem10Oligomer_O26allSpecificMonomerContextsEv
_ZNK4chem10Oligomer_O18sequenceAsFileNameEv
_ZNK4chem10Oligomer_O16sequenceAsStringEv
_ZN4chem10Oligomer_O15getFirstMonomerEv
_ZN4chem10Oligomer_O17incrementSequenceEv
_ZN4chem10Oligomer_O17numberOfSequencesEv
_ZNK4chem10Oligomer_O25monomerWithSequenceNumberEm
_ZN4chem10Oligomer_O20currentSequenceIndexEv
_ZN4chem10Oligomer_O13firstSequenceEv
_ZN4chem10Oligomer_O12gotoSequenceEN7gctools9smart_ptrIN4core9Integer_OEEE
_ZN4chem10Oligomer_O13buildMoleculeEv
_ZN4chem10Oligomer_O23ringCoupleWithPlugNamesEN7gctools9smart_ptrINS_9Monomer_OEEENS2_IN4core8Symbol_OEEES4_S7_
_ZN4chem10Oligomer_O10ringCoupleEN7gctools9smart_ptrINS_9Monomer_OEEES4_
_ZN4chem10Oligomer_O6coupleEN7gctools9smart_ptrINS_9Monomer_OEEENS2_IN4core3T_OEEES4_NS2_INS5_8Symbol_OEEE
_ZN4chem10Oligomer_O21throwIfBadConnectionsEv
_ZNK4chem10Oligomer_O11rootMonomerEv
_ZN4chem10Oligomer_O11addCouplingEN7gctools9smart_ptrINS_10Coupling_OEEE
_ZN4chem10Oligomer_O17removeLeafMonomerEN7gctools9smart_ptrINS_9Monomer_OEEE
_ZN4chem10Oligomer_O19updateMultiMonomersEv
_ZN4chem10Oligomer_O14checkForErrorsEv
_ZN4chem10Oligomer_O14removeCouplingEN7gctools9smart_ptrINS_10Coupling_OEEE
_ZN4chem10Oligomer_O13removeMonomerEN7gctools9smart_ptrINS_9Monomer_OEEE
_ZN4chem10Oligomer_O16getMonomerWithIdEN7gctools9smart_ptrIN4core8Symbol_OEEE
_ZN4chem10Oligomer_O16hasMonomerWithIdEN7gctools9smart_ptrIN4core8Symbol_OEEE
_ZN4chem10Oligomer_O10addMonomerEN7gctools9smart_ptrINS_9Monomer_OEEE
_ZN4chem10Oligomer_O15couplingsAsListEv
_ZN4chem10Oligomer_O14monomersAsListEv
_ZN4chem10Oligomer_O5emptyEv
_ZN4chem20PdbMonomerDatabase_O12connectAtomsEN7gctools9smart_ptrINS_8Matter_OEEE
_ZN4chem11PdbWriter_O5closeEv
_ZN4chem11PdbWriter_O10writeModelEN7gctools9smart_ptrINS_8Matter_OEEEi
_ZN4chem11PdbWriter_O4openEN7gctools9smart_ptrIN4core3T_OEEE
_ZN4chem6Mate_O6getCapEv
_ZN4chem6Mate_O6setCapEN7gctools9smart_ptrIN4core8Symbol_OEEE
_ZN4chem6Mate_O4makeEN7gctools9smart_ptrIN4core8Symbol_OEEE
_ZNK4chem6Plug_O8getIsOutEv
_ZNK4chem6Plug_O7getNameEv
_ZN4chem6Plug_O7setNameEN7gctools9smart_ptrIN4core8Symbol_OEEE
_ZN4chem6Plug_O4makeEN7gctools9smart_ptrIN4core8Symbol_OEEE
_ZN4chem15PlugWithMates_O4makeEN7gctools9smart_ptrIN4core8Symbol_OEEENS2_INS3_6List_VEEES5_NS_13BondOrderEnumES5_S8_
_ZN4chem9OutPlug_O22ringClosingMatesAsListEv
_ZN4chem9OutPlug_O16getStubPivotAtomEv
_ZN4chem9OutPlug_O16hasStubPivotAtomEv
_ZN4chem9OutPlug_O4makeEN7gctools9smart_ptrIN4core8Symbol_OEEENS2_INS3_6List_VEEES5_S5_NS_13BondOrderEnumES5_S8_
_ZN4chem8InPlug_O4makeEN7gctools9smart_ptrIN4core8Symbol_OEEENS2_INS3_6List_VEEES5_NS_13BondOrderEnumES5_S8_
_ZN4chem10JumpPlug_O4makeEN7gctools9smart_ptrIN4core8Symbol_OEEES5_
_ZN4chem12OriginPlug_O4makeEN7gctools9smart_ptrIN4core8Symbol_OEEES5_
_ZN4chem21ReadAmberParameters_O13getForceFieldEv
_ZN4chem21ReadAmberParameters_O14readParametersEN7gctools9smart_ptrIN4core3T_OEEES5_
_ZN4chem21ReadAmberParameters_O9readTypesEN7gctools9smart_ptrIN4core3T_OEEE
_ZN4chem21ReadAmberParameters_O12setTypeRulesEN7gctools9smart_ptrINS_11FFTypesDb_OEEE
_ZN4chem21ReadAmberParameters_O12getTypeRulesEv
_ZN4chem11Restraint_O9setActiveEb
_ZNK4chem11Restraint_O8isActiveEv
_ZN4chem17RestraintAnchor_O7setAtomEN7gctools9smart_ptrINS_6Atom_OEEE
_ZN4chem17RestraintAnchor_O12setAnchorPosERK7Vector3
_ZN4chem17RestraintAnchor_O9getWeightEv
_ZN4chem17RestraintAnchor_O9setWeightEd
_ZN4chem18SearchStatistics_O7getHitsEv
_ZN4chem18SearchStatistics_O13incrementHitsEv
_ZN4chem18SearchStatistics_O10getRejectsEv
_ZN4chem18SearchStatistics_O16incrementRejectsEv
_ZN4chem18SearchStatistics_O9getBuildsEv
_ZN4chem18SearchStatistics_O15incrementBuildsEv
_ZN4chem14SpanningLoop_O8allAtomsEv
_ZN4chem14SpanningLoop_O4nextEN7gctools9smart_ptrIN4core3T_OEEE
_ZN4chem14SpanningLoop_O12getBackCountEN7gctools9smart_ptrINS_6Atom_OEEE
_ZN4chem14SpanningLoop_O11getNextSpanEN7gctools9smart_ptrINS_6Atom_OEEE
_ZN4chem14SpanningLoop_O11getBackSpanEN7gctools9smart_ptrINS_6Atom_OEEE
_ZN4chem14SpanningLoop_O15isNextSpanValidEN7gctools9smart_ptrINS_6Atom_OEEE
_ZN4chem14SpanningLoop_O15isBackSpanValidEN7gctools9smart_ptrINS_6Atom_OEEE
_ZN4chem14SpanningLoop_O21advanceLoopAndProcessEv
_ZN4chem14SpanningLoop_O7getAtomEv
_ZN4chem14SpanningLoop_O6setTopEN7gctools9smart_ptrINS_6Atom_OEEE
_ZN4chem14SpanningLoop_O7advanceEv
_ZN4chem17SpecificContext_O19copySpecificContextEv
_ZN4chem17SpecificContext_O8asStringEv
_ZN4chem17SpecificContext_O11popNeighborEv
_ZN4chem17SpecificContext_O12pushNeighborEN7gctools9smart_ptrIN4core8Symbol_OEEES5_
_ZN4chem17SpecificContext_O11setSelfNameEN7gctools9smart_ptrIN4core8Symbol_OEEE
_ZN4chem20SpecificContextSet_O6asConsEv
_ZN4chem20SpecificContextSet_O17asSymbolSetOfKeysEv
_ZN4chem20SpecificContextSet_O3addEN7gctools9smart_ptrINS_17SpecificContext_OEEE
_ZN4chem20SpecificContextSet_O4sizeEv
_ZN4chem21StereoConfiguration_O19getMoeConfigurationEv
_ZN4chem21StereoConfiguration_O16setConfigurationEN7gctools9smart_ptrIN4core8Symbol_OEEE
_ZN4chem21StereoConfiguration_O16getConfigurationEv
_ZN4chem21StereoConfiguration_O11setAtomNameEN7gctools9smart_ptrIN4core8Symbol_OEEE
_ZN4chem21StereoConfiguration_O11getAtomNameEv
_ZN4chem21StereoConfiguration_O4makeEN7gctools9smart_ptrIN4core8Symbol_OEEES5_
_ZN4chem21StereoConfiguration_O15create_multipleEN7gctools9smart_ptrIN4core6List_VEEES5_
_ZN4chem21StereoConfiguration_O27stereochemical_permutationsEj
_ZN4chem14Stereoisomer_O25getConfigurationForCenterEN7gctools9smart_ptrIN4core8Symbol_OEEE
_ZN4chem14Stereoisomer_O6setPdbEN7gctools9smart_ptrIN4core8Symbol_OEEE
_ZN4chem14Stereoisomer_O6getPdbEv
_ZN4chem14Stereoisomer_O20setStereoisomerIndexEN7gctools9smart_ptrIN4core9Integer_OEEE
_ZNK4chem14Stereoisomer_O20getStereoisomerIndexEv
_ZN4chem14Stereoisomer_O7setNameEN7gctools9smart_ptrIN4core8Symbol_OEEE
_ZNK4chem14Stereoisomer_O7getNameEv
_ZN4chem14Stereoisomer_O4makeEN7gctools9smart_ptrIN4core8Symbol_OEEES5_NS2_INS3_9Integer_OEEENS2_INS3_6List_VEEE
_ZN4chem19StereoInformation_O8validateEv
_ZNK4chem19StereoInformation_O23number_of_stereoisomersEv
_ZN4chem19StereoInformation_O19stereoisomersAsListEv
_ZN4chem19StereoInformation_O4makeEN7gctools9smart_ptrIN4core6List_VEEES5_
_ZN4chem18StereoisomerAtom_O11setAtomTypeEN7gctools9smart_ptrIN4core8Symbol_OEEE
_ZNK4chem18StereoisomerAtom_O11getAtomTypeEv
_ZN4chem18StereoisomerAtom_O13setAtomChargeEd
_ZNK4chem18StereoisomerAtom_O13getAtomChargeEv
_ZN4chem18StereoisomerAtom_O8atomNameEv
_ZNK4chem19StereoisomerAtoms_O5indexEN7gctools9smart_ptrIN4core8Symbol_OEEE
_ZNK4chem19StereoisomerAtoms_O10atomWithIdEi
_ZN4chem19StereoisomerAtoms_O12atomWithNameEN7gctools9smart_ptrIN4core8Symbol_OEEEb
_ZN4chem19StereoisomerAtoms_O20atomNamesAsSymbolSetEv
_ZN4chem19StereoisomerAtoms_O19addStereoisomerAtomEN7gctools9smart_ptrINS_18StereoisomerAtom_OEEE
_ZNK4chem19StereoisomerAtoms_O7getNameEv
_ZN4chem17SuperposeEngine_O9superposeEv
_ZN4chem17SuperposeEngine_O20setMoveableAllPointsEN7gctools9smart_ptrIN4geom24SimpleVectorCoordinate_OEEE
_ZN4chem17SuperposeEngine_O17setMoveablePointsEN7gctools9smart_ptrIN4core24ComplexVector_byte32_t_OEEENS2_IN4geom24SimpleVectorCoordinate_OEEE
_ZN4chem17SuperposeEngine_O17setFixedAllPointsEN7gctools9smart_ptrIN4geom24SimpleVectorCoordinate_OEEE
_ZN4chem17SuperposeEngine_O14setFixedPointsEN7gctools9smart_ptrIN4core24ComplexVector_byte32_t_OEEENS2_IN4geom24SimpleVectorCoordinate_OEEE
_ZN4chem17SuperposeEngine_O24rootMeanSquareDifferenceEv
_ZN4chem17SuperposeEngine_O25sumOfSquaresOfDifferencesEv
_ZN4chem17SuperposeEngine_O11doSuperposeEv
_ZN4chem17SuperposeEngine_O25getNumberOfMoveablePointsEv
_ZN4chem17SuperposeEngine_O22getNumberOfFixedPointsEv
_ZN4chem17SuperposeEngine_O19appendMoveablePointERK7Vector3
_ZN4chem17SuperposeEngine_O16eraseFixedPointsEv
_ZN4chem17SuperposeEngine_O19eraseMoveablePointsEv
_ZN4chem17SuperposeEngine_O11debugStringEv
_ZN4chem24SuperposeSelectedAtoms_O44copyMatterCoordinatesIntoMoveableCoordinatesEN7gctools9smart_ptrINS_8Matter_OEEE
_ZN4chem24SuperposeSelectedAtoms_O41copyMatterCoordinatesIntoFixedCoordinatesEN7gctools9smart_ptrINS_8Matter_OEEE
_ZN4chem24SuperposeSelectedAtoms_O9getMatterEv
_ZN4chem24SuperposeSelectedAtoms_O18extractCoordinatesEN7gctools9smart_ptrINS_8Matter_OEEE
_ZN4chem24SuperposeSelectedAtoms_O26setMatterWithSelectedAtomsEN7gctools9smart_ptrINS_8Matter_OEEE
_ZN4chem24SuperposeSelectedAtoms_O9setMatterEN7gctools9smart_ptrINS_8Matter_OEEE
_ZN4chem10Topology_O21walkStereoisomerAtomsEN7gctools9smart_ptrIN4core10Function_OEEE
_ZN4chem10Topology_O23lookupStereoisomerAtomsEx
_ZN4chem10Topology_O20setStereoisomerAtomsEN7gctools9smart_ptrIN4core8Symbol_OEEENS2_INS3_6List_VEEE
_ZN4chem10Topology_O11hasPropertyEN7gctools9smart_ptrIN4core8Symbol_OEEE
_ZN4chem10Topology_O20getPropertyOrDefaultEN7gctools9smart_ptrIN4core8Symbol_OEEENS2_INS3_3T_OEEE
_ZN4chem10Topology_O11getPropertyEN7gctools9smart_ptrIN4core8Symbol_OEEE
_ZN4chem10Topology_O11setPropertyEN7gctools9smart_ptrIN4core8Symbol_OEEENS2_INS3_3T_OEEE
_ZN4chem10Topology_O13clearPropertyEN7gctools9smart_ptrIN4core8Symbol_OEEE
_ZNK4chem10Topology_O19getStereoisomerNameEm
_ZN4chem10Topology_O34allOutPlugNamesThatMatchInPlugNameEN7gctools9smart_ptrIN4core8Symbol_OEEE
_ZN4chem10Topology_O9plugNamedEN7gctools9smart_ptrIN4core8Symbol_OEEE
_ZN4chem10Topology_O12hasPlugNamedEN7gctools9smart_ptrIN4core8Symbol_OEEE
_ZN4chem10Topology_O14matchesContextEN7gctools9smart_ptrINS_16MonomerContext_OEEE
_ZN4chem10Topology_O12matchesPlugsEN7gctools9smart_ptrIS0_EE
_ZN4chem10Topology_O14outPlugsAsListEv
_ZN4chem10Topology_O20plugsWithMatesAsListEv
_ZN4chem10Topology_O11plugsAsListEv
_ZN4chem10Topology_O17getMonomerContextEN7gctools9smart_ptrINS_15CandoDatabase_OEEE
_ZNK4chem10Topology_O22buildResidueSingleNameEv
_ZNK4chem10Topology_O22buildResidueForIsonameEN7gctools9smart_ptrINS_9Isoname_OEEE
_ZNK4chem10Topology_O26buildResidueForMonomerNameEN7gctools9smart_ptrIN4core8Symbol_OEEE
_ZNK4chem10Topology_O21buildResidueForIsomerEm
_ZN4chem10Topology_O7addPlugEN7gctools9smart_ptrIN4core8Symbol_OEEENS2_INS_6Plug_OEEE
_ZN4chem10Topology_O26setf_default_out_plug_nameEN7gctools9smart_ptrIN4core8Symbol_OEEE
_ZNK4chem10Topology_O18defaultOutPlugNameEv
_ZN4chem10Topology_O9getInPlugEv
_ZN4chem10Topology_O9hasInPlugEv
_ZN4chem10Topology_O13numberOfPlugsEv
_ZN4chem10Topology_O7setNameEN7gctools9smart_ptrIN4core8Symbol_OEEE
_ZNK4chem10Topology_O7getNameEv
_ZNK4chem10Topology_O15getConstitutionEv
_ZN4chem10Topology_O23makeTopologyFromResidueEN7gctools9smart_ptrINS_9Residue_OEEENS2_IN4core8Symbol_OEEENS2_INS5_3T_OEEE
_ZN4chem10Topology_O4makeEN7gctools9smart_ptrIN4core8Symbol_OEEENS2_INS_14Constitution_OEEENS2_INS3_6List_VEEE
_ZN4chem12Trajectory_O28applyTrajectoryFrameToMatterEN7gctools9smart_ptrINS_17TrajectoryFrame_OEEE
_ZN4chem12Trajectory_O18getTrajectoryFrameEj
_ZN4chem12Trajectory_O24numberOfTrajectoryFramesEv
_ZN4chem12Trajectory_O8addFrameEN7gctools9smart_ptrINS_8Matter_OEEE
_ZNK4chem12Trajectory_O9getMatterEv
_ZN4chem9Twister_O14rotateAbsoluteEd
_ZN4chem9Twister_O27currentDihedralAngleRadiansEv
_ZN4chem9Twister_O6rotateEd
_ZN4chem9Twister_O20defineFixedAndMobileEN7gctools9smart_ptrINS_6Atom_OEEES4_
_ZN4chem9Twister_O13defineForBondEN7gctools9smart_ptrINS_6Atom_OEEES4_
_ZN4chem9Twister_O17defineForDihedralEN7gctools9smart_ptrINS_6Atom_OEEES4_S4_S4_
_ZN4chem9Twister_O7addAtomEN7gctools9smart_ptrINS_6Atom_OEEE
_ZN4chem9Twister_O18setFixedAndMovableEN7gctools9smart_ptrINS_6Atom_OEEES4_
_ZN4chem15TwisterDriver_O19perturbConformationEv
_ZN4chem15TwisterDriver_O10getTwisterEj
_ZN4chem15TwisterDriver_O10addTwisterEN7gctools9smart_ptrINS_9Twister_OEEE
_ZN4chem15TwisterDriver_O19perturbConformationEv
_ZN4chem15TwisterDriver_O16numberOfTwistersEv
_ZN4chem15VirtualSphere_O24setMouseYAxisWheelChangeEN7gctools9smart_ptrIN4core8Symbol_OEEEd
_ZN4chem15VirtualSphere_O24setMouseXAxisWheelChangeEN7gctools9smart_ptrIN4core8Symbol_OEEEd
_ZN4chem15VirtualSphere_O12setMouseMoveEii
_ZN4chem15VirtualSphere_O19setMouseStartSymbolEN7gctools9smart_ptrIN4core8Symbol_OEEEiiii
_ZN4chem21ZMatrixBondInternal_O22getBondAtomZMatrixNameEv
_ZNK4chem21ZMatrixBondInternal_O16getBondAtomIndexEv
_ZN4chem22ZMatrixAngleInternal_O23getAngleAtomZMatrixNameEv
_ZN4chem22ZMatrixAngleInternal_O22getBondAtomZMatrixNameEv
_ZNK4chem22ZMatrixAngleInternal_O17getAngleAtomIndexEv
_ZNK4chem22ZMatrixAngleInternal_O16getBondAtomIndexEv
_ZN4chem25ZMatrixDihedralInternal_O26getDihedralAtomZMatrixNameEv
_ZN4chem25ZMatrixDihedralInternal_O23getAngleAtomZMatrixNameEv
_ZN4chem25ZMatrixDihedralInternal_O22getBondAtomZMatrixNameEv
_ZNK4chem25ZMatrixDihedralInternal_O20getDihedralAtomIndexEv
_ZNK4chem25ZMatrixDihedralInternal_O17getAngleAtomIndexEv
_ZNK4chem25ZMatrixDihedralInternal_O16getBondAtomIndexEv
_ZN4chem14ZMatrixEntry_O11getDihedralEv
_ZN4chem14ZMatrixEntry_O11hasDihedralEv
_ZN4chem14ZMatrixEntry_O8getAngleEv
_ZN4chem14ZMatrixEntry_O8hasAngleEv
_ZN4chem14ZMatrixEntry_O7getBondEv
_ZN4chem14ZMatrixEntry_O7hasBondEv
_ZN4chem14ZMatrixEntry_O24getTargetAtomZMatrixNameEv
_ZN4chem14ZMatrixEntry_O7getAtomEv
_ZNK4chem9ZMatrix_O27allZMatrixAtomNamesAsStringEv
_ZNK4chem9ZMatrix_O20zMatrixEntryWithNameEN7gctools9smart_ptrIN4core3T_OEEE
_ZNK4chem9ZMatrix_O13entriesAsListEv
_ZN4chem9ZMatrix_O16extractInternalsEv
_ZNK4chem9ZMatrix_O25getZMatrixAtomNameAtIndexEj
_ZN4geom16BoundingCuboid_O3padEd
_ZNK4geom16BoundingCuboid_O7getMaxZEv
_ZNK4geom16BoundingCuboid_O7getMinZEv
_ZNK4geom16BoundingCuboid_O7getMaxYEv
_ZNK4geom16BoundingCuboid_O7getMinYEv
_ZNK4geom16BoundingCuboid_O7getMaxXEv
_ZNK4geom16BoundingCuboid_O7getMinXEv
_ZNK4geom16BoundingCuboid_O12getHalfWidthEv
_ZNK4geom16BoundingCuboid_O9getCenterEv
_ZNK4geom9OMatrix_O22rotation_to_quaternionEv
_ZN4geom9OMatrix_O30set_from_normalized_quaternionEddddddd
_ZN4geom9OMatrix_O19set_from_quaternionEddddddd
_ZNK4geom9OMatrix_O9m_TIMES_vERK7Vector3
_ZNK4geom9OMatrix_O9m_TIMES_mERK6Matrix
_ZN4geom9OMatrix_O8asStringEv
_ZN4geom9OMatrix_O13setFromVectorEN7gctools9smart_ptrIN4core7Array_OEEE
_ZN4geom9OMatrix_O14getTranslationEv
_ZN4geom9OMatrix_O14setTranslationERK7Vector3
_ZN4geom9OMatrix_O13setFromStringERKNSt3__112basic_stringIcNS1_11char_traitsIcEENS1_9allocatorIcEEEE
_ZNK4geom9OMatrix_O15is3x3OrthogonalEd
_ZN4geom9OMatrix_O11atRowColPutEiid
_ZN4geom9OMatrix_O11atRowColGetEii
_ZNK4geom9OMatrix_O13transposed3x3Ev
_ZNK4geom9OMatrix_O10extract3x3Ev
_ZN4geom10OVector2_O8distanceERKNS_7Vector2E
_ZN4geom10OVector2_O5angleERKNS_7Vector2ES3_
_ZN4geom10OVector2_O10normalizedEv
_ZN4geom10OVector2_O11timesScalarEd
_ZN4geom10OVector2_O3addEN7gctools9smart_ptrIN4core6List_VEEE
_ZN4geom10OVector2_O10dotProductERKNS_7Vector2E
_ZN4geom10OVector2_O9magnitudeEv
_ZN4geom10OVector2_O3subERKNS_7Vector2E
_ZN4geom10OVector2_O4getYEv
_ZN4geom10OVector2_O4getXEv
_ZN4geom10OVector2_O6setAllEdd
_ZNK5units6Unit_OdvEN7gctools9smart_ptrIN4core3T_OEEE
_ZNK5units6Unit_OmlEN7gctools9smart_ptrIN4core3T_OEEE
_ZNK5units6Unit_O20conversion_factor_toEN7gctools9smart_ptrIS0_EEi
_ZNK5units6Unit_O13is_compatibleEN7gctools9smart_ptrIS0_EEi
_ZN5units6Unit_O15test_set_amountEd
_ZNK5units10Quantity_OgeEN7gctools9smart_ptrIN4core3T_OEEE
_ZNK5units10Quantity_OgtEN7gctools9smart_ptrIN4core3T_OEEE
_ZNK5units10Quantity_OleEN7gctools9smart_ptrIN4core3T_OEEE
_ZNK5units10Quantity_OltEN7gctools9smart_ptrIN4core3T_OEEE
_ZNK5units10Quantity_O5isnanEv
_ZNK5units10Quantity_O4sqrtEv
_ZNK5units10Quantity_O5powerEi
_ZNK5units10Quantity_OmiEN7gctools9smart_ptrIN4core3T_OEEE
_ZNK5units10Quantity_OplEN7gctools9smart_ptrIN4core3T_OEEE
_ZNK5units10Quantity_OdvEN7gctools9smart_ptrIN4core3T_OEEE
_ZNK5units10Quantity_OmlEN7gctools9smart_ptrIN4core3T_OEEE
_ZNK5units10Quantity_O4sizeEv
_ZN5units10Quantity_O10setElementEjN7gctools9smart_ptrIS0_EE
_ZNK5units10Quantity_O18getElement_in_unitEjN7gctools9smart_ptrINS_6Unit_OEEE
_ZNK5units10Quantity_O13value_in_unitEN7gctools9smart_ptrINS_6Unit_OEEEi
_ZNK5units10Quantity_O13is_compatibleEN7gctools9smart_ptrIN4core3T_OEEE
_ZNK5units10Quantity_O11rawAsStringEv
_ZNK5units10Quantity_O7rawUnitEv
_ZNK5units10Quantity_O8rawValueEv
_ZN4chem14Constitution_O21getTopologyForContextEN7gctools9smart_ptrINS_16MonomerContext_OEEE
_ZNK4chem14Constitution_O16topologyWithNameEN7gctools9smart_ptrIN4core8Symbol_OEEE
_ZN4chem14Constitution_O29simplestTopologyWithPlugNamedEN7gctools9smart_ptrIN4core8Symbol_OEEE
_ZN4chem14Constitution_O20plugsWithMatesAsListEv
_ZN4chem14Constitution_O16topologiesAsListEv
_ZN4chem14Constitution_O19stereoisomersAsListEv
_ZN4chem14Constitution_O26getMonomerNamesAsSymbolSetEv
_ZN4chem14Constitution_O7addPlugEN7gctools9smart_ptrIN4core8Symbol_OEEENS2_INS_6Plug_OEEE
_ZN4chem14Constitution_O12getPlugNamedEN7gctools9smart_ptrIN4core8Symbol_OEEE
_ZN4chem14Constitution_O12hasPlugNamedEN7gctools9smart_ptrIN4core8Symbol_OEEE
_ZN4chem14Constitution_O10getCommentEv
_ZN4chem14Constitution_O10setCommentEN7gctools9smart_ptrIN4core7Array_OEEE
_ZNK4chem14Constitution_O20getStereoInformationEv
_ZN4chem14Constitution_O20getConstitutionAtomsEv
_ZN4chem14Constitution_O12add_topologyEN7gctools9smart_ptrINS_10Topology_OEEE
_ZN4chem14Constitution_O19setConstitutionNameEN7gctools9smart_ptrIN4core8Symbol_OEEE
_ZNK4chem14Constitution_O16constitutionNameEv
_ZN4chem14Constitution_O4makeEN7gctools9smart_ptrIN4core8Symbol_OEEENS2_INS3_7Array_OEEENS2_INS_19ConstitutionAtoms_OEEENS2_INS_19StereoInformation_OEEENS2_INS3_6List_VEEESD_
_ZN4chem19EnergyOutOfZPlane_O18addOutOfZPlaneTermEmdd
_ZN4chem13EnergyAngle_O12addAngleTermEN7gctools9smart_ptrINS_11AtomTable_OEEENS2_INS_6Atom_OEEES6_S6_dd
_ZN4chem13EnergyAngle_O28safe_amber_energy_angle_termEm
_ZN4chem16EnergyDihedral_O15addDihedralTermEN7gctools9smart_ptrINS_11AtomTable_OEEENS2_INS_6Atom_OEEES6_S6_S6_dbdi
_ZN4chem16EnergyDihedral_O31safe_amber_energy_dihedral_termEm
_ZN4chem25EnergyDihedralRestraint_O20addDihedralRestraintEN7gctools9smart_ptrINS_16EnergyFunction_OEEENS2_INS_6Atom_OEEES6_S6_S6_ddd
_ZN4chem15EnergyNonbond_O26setNonbondExcludedAtomInfoEN7gctools9smart_ptrINS_11AtomTable_OEEENS2_IN4core22SimpleVector_int32_t_OEEES7_
_ZN4chem15EnergyNonbond_O19nonbondTermsAsAListEv
_ZN4chem15EnergyNonbond_O30constructNonbondTermsFromAListEN7gctools9smart_ptrIN4core6List_VEEE
_ZN4chem15EnergyNonbond_O14getFFNonbondDbEv
_ZN4chem15EnergyNonbond_O26expandExcludedAtomsToTermsEv
_ZN4chem15EnergyNonbond_O16setNonbondCutoffEd
_ZNK4chem15EnergyNonbond_O18excluded_atom_listEv
_ZNK4chem15EnergyNonbond_O21number_excluded_atomsEv
_ZN4chem15EnergyNonbond_O21getElectrostaticScaleEv
_ZN4chem15EnergyNonbond_O21setElectrostaticScaleEd
_ZN4chem15EnergyNonbond_O11getVdwScaleEv
_ZN4chem15EnergyNonbond_O11setVdwScaleEd
_ZN4chem15EnergyStretch_O19modifyStretchTermR0Emf
_ZN4chem15EnergyStretch_O19modifyStretchTermKbEmf
_ZN4chem15EnergyStretch_O16walkStretchTermsEN7gctools9smart_ptrIN4core3T_OEEE
_ZN4chem15EnergyStretch_O14addStretchTermEN7gctools9smart_ptrINS_11AtomTable_OEEENS2_INS_6Atom_OEEES6_dd
_ZN4chem15EnergyStretch_O23stretchTermBetweenAtomsEN7gctools9smart_ptrINS_6Atom_OEEES4_
_ZN4chem15EnergyStretch_O30safe_amber_energy_stretch_termEm
_ZN4chem36SuperposableConformationCollection_O50setEntryCoordinatesAsMoveableWithinSuperposeEngineEN7gctools9smart_ptrINS_29ConformationCollectionEntry_OEEENS2_INS_17SuperposeEngine_OEEE
_ZN4chem36SuperposableConformationCollection_O47setEntryCoordinatesAsFixedWithinSuperposeEngineEN7gctools9smart_ptrINS_29ConformationCollectionEntry_OEEENS2_INS_17SuperposeEngine_OEEE
_ZN4chem36SuperposableConformationCollection_O30createEntryIfConformationIsNewEN7gctools9smart_ptrINS_8Matter_OEEE
_ZN4chem36SuperposableConformationCollection_O17getSuperposeAtomsEv
_ZN4chem36SuperposableConformationCollection_O22superposeAllHeavyAtomsEv
_ZN4chem36SuperposableConformationCollection_O21superposeAtomsFromSetEN7gctools15SmallOrderedSetINS1_9smart_ptrINS_6Atom_OEEEEE
_ZN4chem36SuperposableConformationCollection_O16addSuperposeAtomEN7gctools9smart_ptrINS_6Atom_OEEE
_ZN4chem36SuperposableConformationCollection_O19clearSuperposeAtomsEv
_ZN4chem36SuperposableConformationCollection_O12setRmsCutOffEd
_ZN4chem13MonomerPack_O17removeMonomerNameEN7gctools9smart_ptrIN4core8Symbol_OEEE
_ZN4chem26RepresentedEntityNameSet_O17hasRepresentativeEv
_ZN4chem26RepresentedEntityNameSet_O17setRepresentativeEN7gctools9smart_ptrIN4core8Symbol_OEEE
_ZN4chem26RepresentedEntityNameSet_O17getRepresentativeEv
_ZN4chem26RepresentedEntityNameSet_O28testRepresentedEntityNameSetEv
_ZN4chem21EnergySketchStretch_O25modifySketchStretchTermR0Emf
_ZN4chem21EnergySketchStretch_O25modifySketchStretchTermKbEmf
_ZN4chem21EnergySketchStretch_O22walkSketchStretchTermsEN7gctools9smart_ptrIN4core3T_OEEE
_ZN4chem21EnergySketchStretch_O20addSketchStretchTermEmmdd
_ZN4chem21EnergySketchStretch_O30safe_amber_energy_stretch_termEm
_ZN4chem8Dimacs_O8add_edgeEmm
_ZN4chem8Dimacs_O4makeEmm
_ZN4chem23EnergyRigidBodyStaple_O13parts_as_listEN7gctools9smart_ptrIN4core21SimpleVector_double_OEEE
_ZN4chem23EnergyRigidBodyStaple_O33energy_rigid_body_staple_add_termEddmRK7Vector3mS3_
_ZN4chem23EnergyRigidBodyStaple_O4makeEv
_ZN4chem24EnergyRigidBodyNonbond_O37write_nonbond_atoms_to_complex_vectorEN7gctools9smart_ptrIN4core15ComplexVector_OEEE
_ZN4chem24EnergyRigidBodyNonbond_O54write_nonbond_atom_coordinates_to_complex_vector_floatEN7gctools9smart_ptrIN4core21SimpleVector_double_OEEENS2_INS3_21ComplexVector_float_OEEE
_ZN4chem24EnergyRigidBodyNonbond_O52write_rigid_body_coordinates_to_complex_vector_floatEN7gctools9smart_ptrIN4core21SimpleVector_double_OEEENS2_INS3_7Array_OEEES5_NS2_INS3_21ComplexVector_float_OEEE
_ZN4chem24EnergyRigidBodyNonbond_O13parts_as_listEN7gctools9smart_ptrIN4core21SimpleVector_double_OEEE
_ZN4chem24EnergyRigidBodyNonbond_O11getPositionEm
_ZN4chem24EnergyRigidBodyNonbond_O20initializeCrossTermsEb
_ZNK4chem24EnergyRigidBodyNonbond_O23number_of_nonbond_atomsEv
_ZN4chem24EnergyRigidBodyNonbond_O29energyRigidBodyNonbondSetTermExN7gctools9smart_ptrIN4core3T_OEEEdddRK7Vector3
_ZN4chem24EnergyRigidBodyNonbond_O4makeEN7gctools9smart_ptrIN4core7Array_OEEE
_ZNK4chem25RigidBodyEnergyFunction_O19numberOfRigidBodiesEv
_ZN4chem25RigidBodyEnergyFunction_O21makUnboundBoundingBoxEv
_ZN4chem25RigidBodyEnergyFunction_O14setBoundingBoxEN7gctools9smart_ptrINS_13BoundingBox_OEEE
_ZNK4chem25RigidBodyEnergyFunction_O17boundingBoxBoundPEv
_ZNK4chem25RigidBodyEnergyFunction_O11boundingBoxEv
_ZN4chem25RigidBodyEnergyFunction_O17normalizePositionEN7gctools9smart_ptrIN4core21SimpleVector_double_OEEE
_ZN4chem25RigidBodyEnergyFunction_O11getPositionEm
_ZN4chem25RigidBodyEnergyFunction_O11setPositionEmddddddd
_ZN4chem25RigidBodyEnergyFunction_O15set_coordinatesEN7gctools9smart_ptrIN4core21SimpleVector_double_OEEE
_ZNK4chem25RigidBodyEnergyFunction_O15get_coordinatesEv
_ZN4chem25RigidBodyEnergyFunction_O7addTermEN7gctools9smart_ptrINS_26EnergyRigidBodyComponent_OEEE
_ZN4chem21EnergySketchNonbond_O31modifySketchNonbondTermConstantEmf
_ZN4chem21EnergySketchNonbond_O22walkSketchNonbondTermsEN7gctools9smart_ptrIN4core3T_OEEE
_ZN4chem21EnergySketchNonbond_O21setLongDistanceCutoffEf
_ZN4chem21EnergySketchNonbond_O20addSketchNonbondTermEmmmd
_ZN4chem21EnergySketchNonbond_O14setFreezeFlagsEm
_ZN4chem21EnergySketchNonbond_O21getScaleSketchNonbondEv
_ZN4chem21EnergySketchNonbond_O21setScaleSketchNonbondEd
_ZN4chem16SketchFunction_O19resetSketchFunctionEv
_ZNK4chem16SketchFunction_O9atomTableEv
_ZN4chem16SketchFunction_O10getMessageEv
_ZN4chem16SketchFunction_O14getTotalEnergyEv
_ZN4chem16SketchFunction_O23getOutOfZPlaneComponentEv
_ZN4chem16SketchFunction_O32getPointToLineRestraintComponentEv
_ZN4chem16SketchFunction_O25getSketchStretchComponentEv
_ZN4chem16SketchFunction_O25getSketchNonbondComponentEv
_ZN4chem16SketchFunction_O8getGraphEv
_ZNK4chem16SketchFunction_O9nodeTableEv
_ZN4chem16SketchFunction_O4makeEN7gctools9smart_ptrIN4core3T_OEEES5_
_ZN4chem14AddIonOctree_O18OctreeUpdateChargeE7Vector3fd
_ZN4chem14AddIonOctree_O19OctNodeUpdateChargeEN7gctools9smart_ptrINS_9OctNode_OEEEiRNS1_4Vec0INS2_INS_6Atom_OEEEEEi
_ZN4chem14AddIonOctree_O18OctreeDeleteSphereE7Vector3d
_ZN4chem14AddIonOctree_O16OctNodePrintGridEN7gctools9smart_ptrINS_9OctNode_OEEEi
_ZN4chem14AddIonOctree_O17OctreeInitChargesEiid
_ZN4chem14AddIonOctree_O12OctreeCreateEN7gctools9smart_ptrINS_11Aggregate_OEEENS0_16AddIonOctreeEnumEdddNS2_INS_13FFNonbondDb_OEEEib
_ZN4chem14AddIonOctree_O14setBoundingBoxEN7gctools9smart_ptrINS_13BoundingBox_OEEE
_ZN4chem14AddIonOctree_O4makeEN7gctools9smart_ptrINS_11Aggregate_OEEENS0_16AddIonOctreeEnumEdddNS2_INS_13FFNonbondDb_OEEEib
_ZN4chem15GenericOctree_O40octreeTransformedIntersectsInBoundingBoxERK6MatrixN7gctools9smart_ptrIS0_EES3_NS5_INS_13BoundingBox_OEEE
_ZNK4chem15GenericOctree_O8positionEv
_ZNK4chem15GenericOctree_O4dataEv
_ZNK4chem15GenericOctree_O10dataBoundPEv
_ZNK4chem15GenericOctree_O8childrenEv
_ZNK4chem15GenericOctree_O17containing_radiusEv
_ZNK4chem15GenericOctree_O13halfDimensionEv
_ZNK4chem15GenericOctree_O6originEv
_ZNK4chem15GenericOctree_O5depthEv
_ZN4chem15GenericOctree_O17walkGenericOctreeEN7gctools9smart_ptrIN4core10Function_OEEE
_ZNK4chem15GenericOctree_O10isLeafNodeEv
_ZN4chem15GenericOctree_O6insertERK7Vector3N7gctools9smart_ptrIN4core3T_OEEE
_ZN4chem15GenericOctree_O4makeERK7Vector3S3_
_ZNK10kinematics15JointTemplate_O21jointTemplateAtomNameEN7gctools9smart_ptrIN4chem19ConstitutionAtoms_OEEE
_ZNK10kinematics15JointTemplate_O2idEv
_ZNK10kinematics15JointTemplate_O21constitutionAtomIndexEv
_ZNK10kinematics15JointTemplate_O7commentEv
_ZN10kinematics21BondedJointTemplate_O8addChildEN7gctools9smart_ptrINS_15JointTemplate_OEEE
_ZNK10kinematics7Joint_O9getParentEv
_ZN10kinematics7Joint_O19updateInternalCoordEv
_ZN10kinematics7Joint_O11hasPropertyEN7gctools9smart_ptrIN4core8Symbol_OEEE
_ZN10kinematics7Joint_O20getPropertyOrDefaultEN7gctools9smart_ptrIN4core8Symbol_OEEENS2_INS3_3T_OEEE
_ZN10kinematics7Joint_O11getPropertyEN7gctools9smart_ptrIN4core8Symbol_OEEE
_ZN10kinematics7Joint_O11setPropertyEN7gctools9smart_ptrIN4core8Symbol_OEEENS2_INS3_3T_OEEE
_ZN10kinematics7Joint_O13clearPropertyEN7gctools9smart_ptrIN4core8Symbol_OEEE
_ZN10kinematics7Joint_O11setPositionERK7Vector3
_ZNK10kinematics7Joint_O11getPositionEv
_ZNK10kinematics7Joint_O4nameEv
_ZN10kinematics7Joint_O13getToExternalEv
_ZN10kinematics7Joint_O13setToExternalEN7gctools9smart_ptrIN4core8Symbol_OEEE
_ZN10kinematics7Joint_O13getToInternalEv
_ZN10kinematics7Joint_O13setToInternalEN7gctools9smart_ptrIN4core8Symbol_OEEE
_ZNK10kinematics7Joint_O13getPropertiesEv
_ZNK10kinematics7Joint_O6atomIdEv
_ZN10kinematics13BondedJoint_O6setPhiEd
_ZN10kinematics13BondedJoint_O8setThetaEd
_ZN10kinematics13BondedJoint_O11setDistanceEd
_ZNK10kinematics13BondedJoint_O6getPhiEv
_ZNK10kinematics13BondedJoint_O8getThetaEv
_ZNK10kinematics13BondedJoint_O11getDistanceEv
_ZNK10kinematics17RootBondedJoint_O6getPhiEv
_ZNK10kinematics11JumpJoint_O26getParentRelativeTransformEv
_ZNK10kinematics11JumpJoint_O11getLabFrameEv
_ZN10kinematics10AtomTree_O11walkResidueEiRKN7gctools9smart_ptrINS_7Joint_OEEENS2_IN4core10Function_OEEE
_ZN10kinematics10AtomTree_O20updateInternalCoordsEv
_ZN10kinematics10AtomTree_O4walkEN7gctools9smart_ptrIN4core10Function_OEEE
_ZNK10kinematics10AtomTree_O14atom_tree_rootEv
_ZNK10kinematics13MonomerNode_O7jointAtEm
_ZNK10kinematics13MonomerNode_O14parentPlugNameEv
_ZNK10kinematics13MonomerNode_O6parentEv
_ZN10kinematics13MonomerNode_O20setConformationIndexEm
_ZNK10kinematics13MonomerNode_O17conformationIndexEv
_ZN10kinematics13MonomerNode_O10walkJointsEN7gctools9smart_ptrIN4core10Function_OEEE
_ZNK10kinematics13MonomerNode_O9monomerIdEv
_ZNK10kinematics13MonomerNode_O16stereoisomerNameEv
_ZNK10kinematics13MonomerNode_O8topologyEv
_ZNK10kinematics14Conformation_O11getAtomTreeEv
_ZNK10kinematics14Conformation_O11getFoldTreeEv
_ZN10kinematics14Conformation_O4makeEN7gctools9smart_ptrIN4core6List_VEEE
_ZN10kinematics10FoldTree_O16walkMonomerNodesEN7gctools9smart_ptrIN4core10Function_OEEE
_ZNK10kinematics10FoldTree_O15lookupMonomerIdERKNS_9MonomerIdE
_ZNK10kinematics10FoldTree_O4rootEv
_ZN6clbind4Test13setMultiplierEi
_ZN6clbind4Test4set2Eii
_ZN6clbind4Test4set3Eiii
_ZN6clbind4Test4set4Eiiii
_ZN6clbind4Test4set5Eiiiii
_ZN6clbind4Test4set6Eiiiiii
_ZN6clbind4Test13print_numbersEv
_ZNK4llvm5APInt8toStringEjb
_ZNK5clang4Decl11getGlobalIDEv
_ZNK5clang4Decl10isImplicitEv
_ZN5clang4Decl11setImplicitEb
_ZNK5clang4Decl4dumpEv
_ZNK5clang4Decl11getBeginLocEv
_ZNK5clang4Decl9getEndLocEv
_ZNK5clang4Decl9getAccessEv
_ZNK5clang9NamedDecl13getIdentifierEv
_ZNK5clang9NamedDecl7getNameEv
_ZNK5clang9NamedDecl15getNameAsStringEv
_ZNK5clang9NamedDecl24getQualifiedNameAsStringEv
_ZNK5clang13CXXRecordDecl13hasDefinitionEv
_ZNK5clang13CXXRecordDecl13isPolymorphicEv
_ZNK5clang31ClassTemplateSpecializationDecl15getTemplateArgsEv
_ZNK5clang31ClassTemplateSpecializationDecl16getTypeAsWrittenEv
_ZNK5clang31ClassTemplateSpecializationDecl23getPointOfInstantiationEv
_ZNK5clang31ClassTemplateSpecializationDecl22getSpecializedTemplateEv
_ZNK5clang31ClassTemplateSpecializationDecl21getSpecializationKindEv
_ZN10asttooling23af_getNameForDiagnosticEPN5clang31ClassTemplateSpecializationDeclEN7gctools9smart_ptrIN4core3T_OEEERNS0_11LangOptionsEb
_ZNK5clang15TypedefNameDecl17getUnderlyingTypeEv
_ZNK5clang9ValueDecl7getTypeEv
_ZNK5clang9FieldDecl13getFieldIndexEv
_ZNK5clang12FunctionDecl28isThisDeclarationADefinitionEv
_ZNK5clang12FunctionDecl28doesThisDeclarationHaveABodyEv
_ZNK5clang7VarDecl13isStaticLocalEv
_ZNK5clang7VarDecl14isLocalVarDeclEv
_ZNK5clang7VarDecl16hasGlobalStorageEv
_ZNK5clang4Stmt4dumpEv
_ZNK5clang4Stmt11getBeginLocEv
_ZNK5clang4Stmt9getEndLocEv
_ZNK5clang4Expr7getTypeEv
_ZNK5clang4Expr23getBestDynamicClassTypeEv
_ZNK5clang10CXXNewExpr19getNumPlacementArgsEv
_ZNK5clang17CXXMemberCallExpr13getMethodDeclEv
_ZNK5clang17CXXMemberCallExpr25getImplicitObjectArgumentEv
_ZNK5clang13StringLiteral9getStringEv
_ZNK5clang4Type4dumpEv
_ZNK5clang4Type5getAsINS_26TemplateSpecializationTypeEEEPKT_v
_ZNK5clang4Type13isIntegerTypeEv
_ZNK5clang4Type24getCanonicalTypeInternalEv
_ZN10asttooling21af_getAsCXXRecordDeclEPN5clang4TypeE
_ZNK5clang11BuiltinType7desugarEv
_ZNK5clang11PointerType7desugarEv
_ZNK5clang11PointerType14getPointeeTypeEv
_ZNK5clang19LValueReferenceType7desugarEv
_ZNK5clang19RValueReferenceType7desugarEv
_ZNK5clang17MemberPointerType7desugarEv
_ZNK5clang17MemberPointerType14getPointeeTypeEv
_ZNK5clang9ArrayType14getElementTypeEv
_ZNK5clang17ConstantArrayType7desugarEv
_ZN10asttooling26af_constant_array_get_sizeEPN5clang17ConstantArrayTypeE
_ZNK5clang19IncompleteArrayType7desugarEv
_ZNK5clang23DependentSizedArrayType7desugarEv
_ZNK5clang10VectorType7desugarEv
_ZNK5clang17FunctionProtoType7desugarEv
_ZNK5clang9ParenType12getInnerTypeEv
_ZNK5clang11TypedefType7getDeclEv
_ZNK5clang11TypedefType9isSugaredEv
_ZNK5clang11TypedefType7desugarEv
_ZNK5clang10RecordType7getDeclEv
_ZNK5clang10RecordType7desugarEv
_ZNK5clang8EnumType7desugarEv
_ZNK5clang14ElaboratedType12getNamedTypeEv
_ZNK5clang20TemplateTypeParmType7desugarEv
_ZNK5clang25SubstTemplateTypeParmType7desugarEv
_ZNK5clang26TemplateSpecializationType15getTemplateNameEv
_ZNK5clang26TemplateSpecializationType10getNumArgsEv
_ZNK5clang26TemplateSpecializationType6getArgEj
_ZNK5clang26TemplateSpecializationType7desugarEv
_ZNK5clang26TemplateSpecializationType14getAliasedTypeEv
_ZNK5clang26TemplateSpecializationType11isTypeAliasEv
_ZNK5clang26TemplateSpecializationType22isCurrentInstantiationEv
_ZNK5clang21InjectedClassNameType7getDeclEv
_ZNK5clang17DependentNameType7desugarEv
_ZNK5clang17DependentNameType9isSugaredEv
_ZNK5clang35DependentTemplateSpecializationType7desugarEv
_ZNK5clang7TypeLoc14getSourceRangeEv
_ZNK5clang7TypeLoc19getLocalSourceRangeEv
_ZNK5clang7TypeLoc11getBeginLocEv
_ZNK5clang7TypeLoc9getEndLocEv
_ZNK5clang16CXXBaseSpecifier7getTypeEv
_ZNK5clang16TemplateArgument7getKindEv
_ZNK5clang16TemplateArgument9pack_sizeEv
_ZNK5clang16TemplateArgument14getPackAsArrayEv
_ZNK5clang16TemplateArgument9getAsTypeEv
_ZNK5clang16TemplateArgument13getAsIntegralEv
_ZNK5clang16TemplateArgument13getAsTemplateEv
_ZNK5clang16TemplateArgument14getNullPtrTypeEv
_ZNK5clang16TemplateArgument9getAsDeclEv
_ZNK5clang16TemplateArgument9getAsExprEv
_ZNK5clang12TemplateName17getAsTemplateDeclEv
_ZNK5clang14TypeSourceInfo7getTypeEv
_ZNK5clang14TypeSourceInfo10getTypeLocEv
_ZNK5clang20TemplateArgumentList4sizeEv
_ZNK5clang20TemplateArgumentList3getEj
_ZN10asttooling14getFieldOffsetEPN5clang10ASTContextEPNS0_10RecordDeclEm
_ZN10asttooling13getRecordSizeEPN5clang10ASTContextEPNS0_10RecordDeclE
_ZNK5clang10ASTContext22getTranslationUnitDeclEv
_ZNK5clang10ASTContext11getLangOptsEv
_ZNK5clang10ASTContext17getCommentForDeclEPKNS_4DeclEPKNS_12PreprocessorE
_ZNK5clang10ASTContext18getASTRecordLayoutEPKNS_10RecordDeclE
_ZNK5clang13SourceManager14getPresumedLocENS_14SourceLocationEb
_ZNK5clang13SourceManager11getFilenameENS_14SourceLocationE
_ZNK5clang13SourceManager15getExpansionLocENS_14SourceLocationE
_ZNK5clang13SourceManager22getExpansionLineNumberENS_14SourceLocationEPb
_ZNK5clang13SourceManager24getExpansionColumnNumberENS_14SourceLocationEPb
_ZNK5clang13SourceManager14getSpellingLocENS_14SourceLocationE
_ZNK5clang13SourceManager21getSpellingLineNumberENS_14SourceLocationEPb
_ZNK5clang13SourceManager23getSpellingColumnNumberENS_14SourceLocationEPb
_ZNK5clang13SourceManager21getPresumedLineNumberENS_14SourceLocationEPb
_ZNK5clang13SourceManager23getPresumedColumnNumberENS_14SourceLocationEPb
_ZNK5clang11SourceRange8getBeginEv
_ZNK5clang11SourceRange6getEndEv
_ZN5clang15CharSourceRange13getTokenRangeENS_14SourceLocationES1_
_ZN5clang15CharSourceRange12getCharRangeENS_14SourceLocationES1_
_ZN5clang15CharSourceRange13getTokenRangeENS_11SourceRangeE
_ZN5clang15CharSourceRange12getCharRangeENS_11SourceRangeE
_ZNK5clang16CompilerInstance13getASTContextEv
_ZN5clang7tooling9ClangTool23clearArgumentsAdjustersEv
_ZN5clang7tooling9ClangTool23appendArgumentsAdjusterENSt3__18functionIFNS2_6vectorINS2_12basic_stringIcNS2_11char_traitsIcEENS2_9allocatorIcEEEENS8_ISA_EEEERKSC_N4llvm9StringRefEEEE
_ZN5clang7tooling9ClangTool3runEPNS0_10ToolActionE
_ZN5clang7tooling9ClangTool9buildASTsERNSt3__16vectorINS2_10unique_ptrINS_7ASTUnitENS2_14default_deleteIS5_EEEENS2_9allocatorIS8_EEEE
_ZNK5clang7tooling11Replacement8toStringEv
_ZNK5clang7tooling11Replacement5applyERNS_8RewriterE
_ZN10asttooling29ast_tooling__Replacements_addERN5clang7tooling12ReplacementsERKNS1_11ReplacementE
_ZN5clang7tooling15RefactoringTool15getReplacementsEv
_ZN5clang7tooling15RefactoringTool20applyAllReplacementsERNS_8RewriterE
_ZN5clang7tooling15RefactoringTool10runAndSaveEPNS0_21FrontendActionFactoryE
_ZN5clang7ASTUnit13getASTContextEv
_ZN10asttooling37ast_tooling__newFrontendActionFactoryEN7gctools9smart_ptrIN4core3T_OEEE
_ZN10asttooling30DerivableFrontendActionFactory14default_createEv
_ZN10asttooling30DerivableFrontendActionFactory14default_createEv
_ZN5clang7tooling26getClangSyntaxOnlyAdjusterEv
_ZN5clang7tooling27getClangStripOutputAdjusterEv
_ZNK5clang12ast_matchers7dynamic14VariantMatcher15getTypeAsStringEv
_ZN10asttooling29ast_tooling__getSingleMatcherEN7gctools9smart_ptrIN4core3T_OEEE
_ZN5clang12ast_matchers11MatchFinder17addDynamicMatcherERKNS0_8internal15DynTypedMatcherEPNS1_13MatchCallbackE
_ZN5clang12ast_matchers11MatchFinder8matchASTERNS_10ASTContextE
_ZN10asttooling18ast_tooling__matchEN7gctools9smart_ptrIN4core3T_OEEES4_S4_
_ZN10asttooling22DerivableMatchCallback11default_runERKN5clang12ast_matchers22MatchFinderMatchResultE
_ZN10asttooling22DerivableMatchCallback11default_runERKN5clang12ast_matchers22MatchFinderMatchResultE
_ZN10asttooling22DerivableMatchCallback32default_onStartOfTranslationUnitEv
_ZN10asttooling22DerivableMatchCallback32default_onStartOfTranslationUnitEv
_ZN10asttooling22DerivableMatchCallback30default_onEndOfTranslationUnitEv
_ZN10asttooling22DerivableMatchCallback30default_onEndOfTranslationUnitEv
_ZNK5clang12ast_matchers22MatchFinderMatchResult8getNodesEv
_ZNK5clang12ast_matchers22MatchFinderMatchResult10getContextEv
_ZNK5clang12ast_matchers22MatchFinderMatchResult16getSourceManagerEv
_ZN10asttooling24ast_tooling__IDToNodeMapEN7gctools9smart_ptrIN4core3T_OEEE
_ZN5clang5Lexer19getLocForEndOfTokenENS_14SourceLocationEjRKNS_13SourceManagerERKNS_11LangOptionsE
_ZN5clang5Lexer13getSourceTextENS_15CharSourceRangeERKNS_13SourceManagerERKNS_11LangOptionsEPb
_ZNK5clang8comments7Comment14getSourceRangeEv
