                 U _LLVMLinkInInterpreter
                 U _LLVMLinkInJIT
                 U _LLVMLinkInMCJIT
                 U __Unwind_Resume
                 U __Z24lisp_errorUnexpectedTypemmPN4core3T_OE
                 U __ZN15_RootDummyClassC2Ev
                 U __ZN2cl11_sym_Cons_OE
                 U __ZN2cl14_sym_typeErrorE
                 U __ZN2cl17_sym_controlErrorE
                 U __ZN2cl8_sym_T_OE
                 U __ZN2kw10_sym_datumE
                 U __ZN2kw13_sym_functionE
                 U __ZN2kw17_sym_expectedTypeE
                 U __ZN2kw21_sym_allow_other_keysE
                 U __ZN3reg17allocate_class_idERKNS_7type_idE
                 U __ZN4comp31_sym_STARlowLevelTracePrintSTARE
                 U __ZN4core11HashTable_O23hash_table_setf_gethashEN3mem9smart_ptrINS_3T_OEEES4_
                 U __ZN4core11HashTable_O6createEN3mem9smart_ptrINS_3T_OEEE
                 U __ZN4core11TopLevelIHFC1ERNS_22InvocationHistoryStackEN3mem9smart_ptrINS_3T_OEEE
                 U __ZN4core11af_keywordPEN3mem9smart_ptrINS_3T_OEEE
                 U __ZN4core12ValueFrame_O15allocateStorageEi
                 U __ZN4core12ValueFrame_O22createFromReversedConsEN3mem9smart_ptrINS_6Cons_OEEENS2_INS_17ActivationFrame_OEEE
                 U __ZN4core14ArrayObjects_O4makeEN3mem9smart_ptrINS_3T_OEEES4_S4_
                 U __ZN4core14CompiledBody_O16setCompiledFuncsEN3mem9smart_ptrINS_3T_OEEE
                 U __ZN4core14CompiledBody_O6createEPNS_8FunctoidEN3mem9smart_ptrINS_3T_OEEE
                 U __ZN4core14StandardChar_O6createEc
                 U __ZN4core14TagbodyFrame_O6createEN3mem9smart_ptrINS_17ActivationFrame_OEEE
                 U __ZN4core14af_symbolValueEN3mem9smart_ptrINS_8Symbol_OEEE
                 U __ZN4core15VectorObjects_O6createEN3mem9smart_ptrINS_3T_OEEEiS4_
                 U __ZN4core15internal_isTrueEPKv
                 U __ZN4core15lisp_createListEN3mem9smart_ptrINS_3T_OEEES3_S3_S3_
                 U __ZN4core16LoadTimeValues_O12data_elementEj
                 U __ZN4core16LoadTimeValues_O15symbols_elementEj
                 U __ZN4core16SourceFileInfo_O11getOrCreateERKNSt3__112basic_stringIcNS1_11char_traitsIcEENS1_9allocatorIcEEEE
                 U __ZN4core17lisp_error_simpleEPKcS1_iRKN5boost12basic_formatIcNSt3__111char_traitsIcEENS4_9allocatorIcEEEE
                 U __ZN4core18CompiledFunction_O20makeCompiledFunctionEN3mem9smart_ptrINS_3T_OEEENS2_INS_14CompiledBody_OEEENS2_INS_17ActivationFrame_OEEENS2_INS_16SourceFileInfo_OEEEjjNS2_INS_8Symbol_OEEE
                 U __ZN4core19DynamicBindingStack3popEv
                 U __ZN4core19DynamicBindingStack4pushEN3mem9smart_ptrINS_8Symbol_OEEE
                 U __ZN4core19DynamicScopeManager25pushSpecialVariableAndSetEN3mem9smart_ptrINS_8Symbol_OEEENS2_INS_3T_OEEE
                 U __ZN4core19DynamicScopeManagerC1Ev
                 U __ZN4core19lisp_multipleValuesEv
                 U __ZN4core20lisp_error_conditionEPKcS1_iN3mem9smart_ptrINS_3T_OEEES5_
                 U __ZN4core22InvocationHistoryFrameD2Ev
                 U __ZN4core3T_O14___staticClassE
                 U __ZN4core5Str_O6createEPKc
                 U __ZN4core5_rep_EN3mem9smart_ptrINS_3T_OEEE
                 U __ZN4core6Cons_O7setOCdrEN3mem9smart_ptrINS_3T_OEEE
                 U __ZN4core6Cons_OC1Ev
                 U __ZN4core6Lisp_O12catchFindTagEN3mem9smart_ptrINS_3T_OEEE
                 U __ZN4core6Lisp_O12catchPushTagEN3mem9smart_ptrINS_3T_OEEE
                 U __ZN4core6Lisp_O14catchUnwindTagEN3mem9smart_ptrINS_6Cons_OEEE
                 U __ZN4core6Lisp_O21internWithPackageNameERKNSt3__112basic_stringIcNS1_11char_traitsIcEENS1_9allocatorIcEEEES9_
                 U __ZN4core6Lisp_O22invocationHistoryStackEv
                 U __ZN4core6Lisp_O25getOrCreateLoadTimeValuesERKNSt3__112basic_stringIcNS1_11char_traitsIcEENS1_9allocatorIcEEEEii
                 U __ZN4core6coerce18functionDesignatorEN3mem9smart_ptrINS_3T_OEEE
                 U __ZN4core8Bignum_O4makeERKNSt3__112basic_stringIcNS1_11char_traitsIcEENS1_9allocatorIcEEEE
                 U __ZN4core8Fixnum_O6createEi
                 U __ZN4core8Symbol_O14symbolFunctionEv
                 U __ZN4core8Symbol_O6createERKNSt3__112basic_stringIcNS1_11char_traitsIcEENS1_9allocatorIcEEEE
                 U __ZN4core9HardErrorC1EPKcS2_jRKN5boost12basic_formatIcNSt3__111char_traitsIcEENS5_9allocatorIcEEEE
                 U __ZN5boost16assertion_failedEPKcS1_S1_l
                 U __ZN5boost21intrusive_ptr_add_refIN4core10Function_OEEEvPT_
                 U __ZN5boost21intrusive_ptr_add_refIN4core11HashTable_OEEEvPT_
                 U __ZN5boost21intrusive_ptr_add_refIN4core11LongFloat_OEEEvPT_
                 U __ZN5boost21intrusive_ptr_add_refIN4core12ShortFloat_OEEEvPT_
                 U __ZN5boost21intrusive_ptr_add_refIN4core12ValueFrame_OEEEvPT_
                 U __ZN5boost21intrusive_ptr_add_refIN4core13DoubleFloat_OEEEvPT_
                 U __ZN5boost21intrusive_ptr_add_refIN4core13SingleFloat_OEEEvPT_
                 U __ZN5boost21intrusive_ptr_add_refIN4core14CompiledBody_OEEEvPT_
                 U __ZN5boost21intrusive_ptr_add_refIN4core14TagbodyFrame_OEEEvPT_
                 U __ZN5boost21intrusive_ptr_add_refIN4core15FunctionFrame_OEEEvPT_
                 U __ZN5boost21intrusive_ptr_add_refIN4core15VectorObjects_OEEEvPT_
                 U __ZN5boost21intrusive_ptr_add_refIN4core16SourceFileInfo_OEEEvPT_
                 U __ZN5boost21intrusive_ptr_add_refIN4core17ActivationFrame_OEEEvPT_
                 U __ZN5boost21intrusive_ptr_add_refIN4core3T_OEEEvPT_
                 U __ZN5boost21intrusive_ptr_add_refIN4core6Cons_OEEEvPT_
                 U __ZN5boost21intrusive_ptr_add_refIN4core7Array_OEEEvPT_
                 U __ZN5boost21intrusive_ptr_add_refIN4core8Symbol_OEEEvPT_
                 U __ZN5boost21intrusive_ptr_releaseIN4core10Function_OEEEvPT_
                 U __ZN5boost21intrusive_ptr_releaseIN4core11HashTable_OEEEvPT_
                 U __ZN5boost21intrusive_ptr_releaseIN4core11LongFloat_OEEEvPT_
                 U __ZN5boost21intrusive_ptr_releaseIN4core12ShortFloat_OEEEvPT_
                 U __ZN5boost21intrusive_ptr_releaseIN4core12ValueFrame_OEEEvPT_
                 U __ZN5boost21intrusive_ptr_releaseIN4core13DoubleFloat_OEEEvPT_
                 U __ZN5boost21intrusive_ptr_releaseIN4core13SingleFloat_OEEEvPT_
                 U __ZN5boost21intrusive_ptr_releaseIN4core14ArrayObjects_OEEEvPT_
                 U __ZN5boost21intrusive_ptr_releaseIN4core14CompiledBody_OEEEvPT_
                 U __ZN5boost21intrusive_ptr_releaseIN4core14StandardChar_OEEEvPT_
                 U __ZN5boost21intrusive_ptr_releaseIN4core14TagbodyFrame_OEEEvPT_
                 U __ZN5boost21intrusive_ptr_releaseIN4core15FunctionFrame_OEEEvPT_
                 U __ZN5boost21intrusive_ptr_releaseIN4core15VectorObjects_OEEEvPT_
                 U __ZN5boost21intrusive_ptr_releaseIN4core16SourceFileInfo_OEEEvPT_
                 U __ZN5boost21intrusive_ptr_releaseIN4core17ActivationFrame_OEEEvPT_
                 U __ZN5boost21intrusive_ptr_releaseIN4core18CompiledFunction_OEEEvPT_
                 U __ZN5boost21intrusive_ptr_releaseIN4core3T_OEEEvPT_
                 U __ZN5boost21intrusive_ptr_releaseIN4core5Str_OEEEvPT_
                 U __ZN5boost21intrusive_ptr_releaseIN4core6Cons_OEEEvPT_
                 U __ZN5boost21intrusive_ptr_releaseIN4core7Array_OEEEvPT_
                 U __ZN5boost21intrusive_ptr_releaseIN4core8Bignum_OEEEvPT_
                 U __ZN5boost21intrusive_ptr_releaseIN4core8Fixnum_OEEEvPT_
                 U __ZN5boost21intrusive_ptr_releaseIN4core8Symbol_OEEEvPT_
                 U __ZN5boost6system15system_categoryEv
                 U __ZN5boost6system16generic_categoryEv
                 U __ZNK4core14MultipleValues8valueGetEii
                 U __ZNK4core6Lisp_O18get_setfDefinitionEN3mem9smart_ptrINS_8Symbol_OEEE
                 U __ZNK4core8Symbol_O11symbolValueEv
                 U __ZNK4core8Symbol_O17symbolValueUnsafeEv
                 U __ZNKSt3__16locale9use_facetERNS0_2idE
                 U __ZNKSt3__18ios_base6getlocEv
                 U __ZNSt11logic_errorC2EPKc
                 U __ZNSt12length_errorD1Ev
                 U __ZNSt3__14coutE
                 U __ZNSt3__15ctypeIcE2idE
                 U __ZNSt3__16localeC1ERKS0_
                 U __ZNSt3__16localeC1Ev
                 U __ZNSt3__16localeD1Ev
                 U __ZNSt3__16localeaSERKS0_
                 U __ZNSt3__17num_putIcNS_19ostreambuf_iteratorIcNS_11char_traitsIcEEEEE2idE
                 U __ZNSt3__18ios_base33__set_badbit_and_consider_rethrowEv
                 U __ZNSt3__18ios_base4initEPv
                 U __ZNSt3__18ios_base5clearEj
                 U __ZNSt3__18ios_base5imbueERKNS_6localeE
                 U __ZNSt3__18ios_baseD2Ev
                 U __ZNSt9exceptionD2Ev
                 U __ZSt18uncaught_exceptionv
                 U __ZSt9terminatev
                 U __ZTIN4core10CatchThrowE
                 U __ZTIN4core10Function_OE
                 U __ZTIN4core10Pathname_OE
                 U __ZTIN4core10Rational_OE
                 U __ZTIN4core10ReturnFromE
                 U __ZTIN4core10Sequence_OE
                 U __ZTIN4core11Character_OE
                 U __ZTIN4core11HashTable_OE
                 U __ZTIN4core11LongFloat_OE
                 U __ZTIN4core12Metaobject_OE
                 U __ZTIN4core12ShortFloat_OE
                 U __ZTIN4core12ValueFrame_OE
                 U __ZTIN4core13DoubleFloat_OE
                 U __ZTIN4core13Environment_OE
                 U __ZTIN4core13ForeignData_OE
                 U __ZTIN4core13Interpreted_OE
                 U __ZTIN4core13SingleFloat_OE
                 U __ZTIN4core13Specializer_OE
                 U __ZTIN4core14ArrayObjects_OE
                 U __ZTIN4core14CompiledBody_OE
                 U __ZTIN4core14TagbodyFrame_OE
                 U __ZTIN4core15FunctionFrame_OE
                 U __ZTIN4core15VectorObjects_OE
                 U __ZTIN4core16ExternalObject_OE
                 U __ZTIN4core16LoadTimeValues_OE
                 U __ZTIN4core16SourceFileInfo_OE
                 U __ZTIN4core16StandardObject_OE
                 U __ZTIN4core17ActivationFrame_OE
                 U __ZTIN4core17GlueEnvironment_OE
                 U __ZTIN4core18BlockEnvironment_OE
                 U __ZTIN4core18CatchEnvironment_OE
                 U __ZTIN4core18CompiledFunction_OE
                 U __ZTIN4core18ValueEnvironment_OE
                 U __ZTIN4core20LexicalEnvironment_OE
                 U __ZTIN4core20TagbodyEnvironment_OE
                 U __ZTIN4core21MacroletEnvironment_OE
                 U __ZTIN4core23ExternalObjectManager_OE
                 U __ZTIN4core23SymbolToEnumConverter_OE
                 U __ZTIN4core24CompileTimeEnvironment_OE
                 U __ZTIN4core26FunctionValueEnvironment_OE
                 U __ZTIN4core26UnwindProtectEnvironment_OE
                 U __ZTIN4core26VectorObjectsWithFillPtr_OE
                 U __ZTIN4core27RuntimeVisibleEnvironment_OE
                 U __ZTIN4core27SymbolMacroletEnvironment_OE
                 U __ZTIN4core30FunctionContainerEnvironment_OE
                 U __ZTIN4core3T_OE
                 U __ZTIN4core5Str_OE
                 U __ZTIN4core6Cons_OE
                 U __ZTIN4core6List_OE
                 U __ZTIN4core6Real_OE
                 U __ZTIN4core7Array_OE
                 U __ZTIN4core7Class_OE
                 U __ZTIN4core7Model_OE
                 U __ZTIN4core7Ratio_OE
                 U __ZTIN4core8Bignum_OE
                 U __ZTIN4core8Fixnum_OE
                 U __ZTIN4core8Number_OE
                 U __ZTIN4core8String_OE
                 U __ZTIN4core8Symbol_OE
                 U __ZTIN4core8Vector_OE
                 U __ZTIN4core9BuiltIn_OE
                 U __ZTIN4core9Complex_OE
                 U __ZTIN4core9DynamicGoE
                 U __ZTIN4core9Integer_OE
                 U __ZTIN4core9LexicalGoE
                 U __ZTIN4core9Pointer_OE
                 U __ZTIN5llvmo11IRBuilder_OE
                 U __ZTIN5llvmo12ConstantFP_OE
                 U __ZTIN5llvmo12UndefValue_OE
                 U __ZTIN5llvmo13ConstantInt_OE
                 U __ZTIN5llvmo17ExecutionEngine_OE
                 U __ZTIN5llvmo21ConstantPointerNull_OE
                 U __ZTIN5llvmo6Type_OE
                 U __ZTIN5llvmo7APInt_OE
                 U __ZTIN5llvmo7Value_OE
                 U __ZTINSt3__18ios_baseE
                 U __ZTISt12length_error
                 U __ZTISt9exception
                 U __ZTVN10__cxxabiv117__class_type_infoE
                 U __ZTVN10__cxxabiv120__si_class_type_infoE
                 U __ZTVN10__cxxabiv121__vmi_class_type_infoE
                 U __ZTVN4core10CatchThrowE
                 U __ZTVN4core10ReturnFromE
                 U __ZTVN4core11LongFloat_OE
                 U __ZTVN4core11TopLevelIHFE
                 U __ZTVN4core12ShortFloat_OE
                 U __ZTVN4core12ValueFrame_OE
                 U __ZTVN4core13DoubleFloat_OE
                 U __ZTVN4core13SingleFloat_OE
                 U __ZTVN4core15FunctionFrame_OE
                 U __ZTVN4core9DynamicGoE
                 U __ZTVN4core9LexicalGoE
                 U __ZTVSt12length_error
                 U __ZdlPv
                 U __Znwm
                 U ___bzero
                 U ___cxa_allocate_exception
                 U ___cxa_atexit
                 U ___cxa_begin_catch
                 U ___cxa_end_catch
                 U ___cxa_free_exception
                 U ___cxa_pure_virtual
                 U ___cxa_rethrow
                 U ___cxa_throw
                 U ___dynamic_cast
                 U ___gxx_personality_v0
                 U ___stack_chk_fail
                 U ___stack_chk_guard
                 U __lisp
                 U _exit
                 U _getenv
                 U _malloc
                 U _memchr
                 U _memcpy
                 U _memmove
                 U _memset
                 U _printf
                 U _puts
                 U _strlen
                 U dyld_stub_binder
