	.section	__TEXT,__text,regular,pure_instructions
	.section	__TEXT,__text,regular,pure_instructions
Ltext_begin:
	.section	__DATA,__data
	.section	__TEXT,__text,regular,pure_instructions
	.align	4, 0x90
_lambda:                                ## @lambda
	.cfi_startproc
	.cfi_personality 155, ___gxx_personality_v0
Leh_func_begin0:
	.cfi_lsda 16, Lexception0
Lfunc_begin0:
## BB#0:                                ## %entry
Ltmp16:
	pushq	%r15
Ltmp17:
	.cfi_def_cfa_offset 16
	pushq	%r14
Ltmp18:
	.cfi_def_cfa_offset 24
	pushq	%r13
Ltmp19:
	.cfi_def_cfa_offset 32
	pushq	%r12
Ltmp20:
	.cfi_def_cfa_offset 40
	pushq	%rbx
Ltmp21:
	.cfi_def_cfa_offset 48
	subq	$80, %rsp
Ltmp22:
	.cfi_def_cfa_offset 128
Ltmp23:
	.cfi_offset %rbx, -48
Ltmp24:
	.cfi_offset %r12, -40
Ltmp25:
	.cfi_offset %r13, -32
Ltmp26:
	.cfi_offset %r14, -24
Ltmp27:
	.cfi_offset %r15, -16
	movq	%rsi, %rbx
	movq	%rdi, %r14
	movl	$0, 68(%rsp)
	leaq	48(%rsp), %rdi
	callq	_newAFsp
	leaq	32(%rsp), %rdi
	callq	_newTsp
	leaq	16(%rsp), %rdi
	callq	_newTsp
	leaq	(%rsp), %rdi
	callq	_newAFsp
	movq	%rbx, %rdi
	callq	_activationFrameSize
	testl	%eax, %eax
	jne	LBB0_1
LBB0_4:                                 ## %continue3
	leaq	48(%rsp), %r15
	movq	%r15, %rdi
	movq	%rbx, %rsi
	callq	_copyAFsp
	movq	_globalRunTimeValuesVector@GOTPCREL(%rip), %r12
	movq	%r12, %rdi
	movl	$2, %esi
	callq	_loadTimeValueReference
	movq	%r15, %rdi
	movq	%rax, %rsi
	callq	_attachDebuggingInfoToValueFrame
	movl	$505, %edi              ## imm = 0x1F9
	movl	$3, %esi
Ltmp28:
Ltmp29:
	callq	_trace_setLineNumberColumnForIHSTop
	leaq	(%rsp), %rbx
	movq	%rbx, %rdi
	movl	$3, %esi
	movl	$2000000, %edx          ## imm = 0x1E8480
	callq	_makeValueFrame
	movq	%rbx, %rdi
	movq	%r15, %rsi
	callq	_setParentOfActivationFrame
	movq	%rbx, %rdi
	xorl	%esi, %esi
	callq	_valueFrameReference
	movq	%rax, %rdi
	movq	%r12, %rsi
	movl	$3, %edx
	callq	_sp_copyLoadTimeValue
	movq	%rbx, %rdi
	movl	$1, %esi
	callq	_valueFrameReference
	movq	%rax, %r13
	movq	%r12, %rdi
	movl	$6, %esi
	callq	_loadTimeValueReference
	movq	%rax, %rbx
	movq	%r12, %rdi
	movl	$3, %esi
	callq	_loadTimeValueReference
	leaq	_A(%rip), %rsi
	leaq	"_:::global-str-compile-in-env"(%rip), %rdx
Ltmp5:
	movq	%r13, %rdi
	movq	%rax, %rcx
	movq	%rbx, %r8
	movq	%r15, %r9
	callq	_sp_makeCompiledFunction
Ltmp6:
## BB#5:                                ## %(TRY-0).normal-dest
	leaq	(%rsp), %r15
	movq	%r15, %rdi
	movl	$2, %esi
	callq	_valueFrameReference
	movq	_globalRunTimeValuesVector@GOTPCREL(%rip), %rbx
	movq	%rax, %rdi
	movq	%rbx, %rsi
	xorl	%edx, %edx
	callq	_sp_copyLoadTimeValue
	callq	_singleStepCallback
	movq	%rbx, %rdi
	movl	$1, %esi
	callq	_loadTimeSymbolReference
	leaq	16(%rsp), %rdi
Ltmp7:
	movq	%rax, %rsi
	movq	%r15, %rdx
	callq	_sp_invokePossibleMultipleValueSymbolFunction
Ltmp8:
## BB#6:                                ## %(TRY-0).normal-dest5
	leaq	16(%rsp), %r15
	movq	_globalRunTimeValuesVector@GOTPCREL(%rip), %rbx
	movq	%r15, %rdi
	movq	%rbx, %rsi
	xorl	%edx, %edx
	callq	_sp_copyLoadTimeValue
	movq	%r14, %rdi
	movq	%rbx, %rsi
	movl	$3, %edx
	callq	_mv_copyLoadTimeValue
	leaq	(%rsp), %rdi
	callq	_destructAFsp
	movq	%r15, %rdi
	callq	_destructTsp
	leaq	32(%rsp), %rdi
	callq	_destructTsp
	leaq	48(%rsp), %rdi
	callq	_destructAFsp
	addq	$80, %rsp
	popq	%rbx
	popq	%r12
	popq	%r13
	popq	%r14
	popq	%r15
	ret
LBB0_1:                                 ## %error
	testl	%eax, %eax
	jns	LBB0_3
## BB#2:                                ## %error1
Ltmp2:
	leaq	"_:::global-str-lambda"(%rip), %rcx
	movq	%rcx, %rdi
	movq	%rbx, %rsi
	movl	%eax, %edx
	xorl	%ecx, %ecx
	callq	_throwNotEnoughArgumentsException
Ltmp3:
LBB0_3:                                 ## %continue
Ltmp0:
	leaq	"_:::global-str-lambda"(%rip), %rcx
	movq	%rcx, %rdi
	movq	%rbx, %rsi
	movl	%eax, %edx
	xorl	%ecx, %ecx
	callq	_throwTooManyArgumentsException
Ltmp1:
	jmp	LBB0_4
LBB0_8:                                 ## %func-cleanup-landing-pad
Ltmp4:
	jmp	LBB0_9
LBB0_7:                                 ## %(TRY-0).landing-pad
Ltmp9:
LBB0_9:                                 ## %func-ehcleanup
	movq	%rdx, %rcx
	movq	%rax, %rbx
	movq	%rbx, 72(%rsp)
	movl	%ecx, 68(%rsp)
	leaq	(%rsp), %rax
	movq	%rax, %rdi
	callq	_destructAFsp
	leaq	16(%rsp), %rax
	movq	%rax, %rdi
	callq	_destructTsp
	leaq	32(%rsp), %rax
	movq	%rax, %rdi
	callq	_destructTsp
	leaq	48(%rsp), %rax
	movq	%rax, %rdi
	callq	_destructAFsp
	movl	$90, %edi
	callq	_debugPrintI32
	movl	$91, %edi
	callq	_debugPrintI32
	movq	%rbx, %rdi
	callq	__Unwind_Resume
Ltmp30:
Lfunc_end0:
	.cfi_endproc
Leh_func_end0:
	.section	__TEXT,__gcc_except_tab
	.align	2
GCC_except_table0:
Lexception0:
	.byte	255                     ## @LPStart Encoding = omit
	.byte	155                     ## @TType Encoding = indirect pcrel sdata4
	.byte	41                      ## @TType base offset
	.byte	3                       ## Call site Encoding = udata4
	.byte	39                      ## Call site table length
Lset0 = Ltmp5-Leh_func_begin0           ## >> Call Site 1 <<
	.long	Lset0
Lset1 = Ltmp8-Ltmp5                     ##   Call between Ltmp5 and Ltmp8
	.long	Lset1
Lset2 = Ltmp9-Leh_func_begin0           ##     jumps to Ltmp9
	.long	Lset2
	.byte	0                       ##   On action: cleanup
Lset3 = Ltmp2-Leh_func_begin0           ## >> Call Site 2 <<
	.long	Lset3
Lset4 = Ltmp1-Ltmp2                     ##   Call between Ltmp2 and Ltmp1
	.long	Lset4
Lset5 = Ltmp4-Leh_func_begin0           ##     jumps to Ltmp4
	.long	Lset5
	.byte	0                       ##   On action: cleanup
Lset6 = Ltmp1-Leh_func_begin0           ## >> Call Site 3 <<
	.long	Lset6
Lset7 = Leh_func_end0-Ltmp1             ##   Call between Ltmp1 and Leh_func_end0
	.long	Lset7
	.long	0                       ##     has no landing pad
	.byte	0                       ##   On action: cleanup
	.align	2

	.section	__TEXT,__text,regular,pure_instructions
	.align	4, 0x90
_A:                                     ## @A
	.cfi_startproc
	.cfi_personality 155, ___gxx_personality_v0
Leh_func_begin1:
	.cfi_lsda 16, Lexception1
Lfunc_begin1:
## BB#0:                                ## %(TRY-0).entry
Ltmp49:
	pushq	%r15
Ltmp50:
	.cfi_def_cfa_offset 16
	pushq	%r14
Ltmp51:
	.cfi_def_cfa_offset 24
	pushq	%r12
Ltmp52:
	.cfi_def_cfa_offset 32
	pushq	%rbx
Ltmp53:
	.cfi_def_cfa_offset 40
	subq	$72, %rsp
Ltmp54:
	.cfi_def_cfa_offset 112
Ltmp55:
	.cfi_offset %rbx, -40
Ltmp56:
	.cfi_offset %r12, -32
Ltmp57:
	.cfi_offset %r14, -24
Ltmp58:
	.cfi_offset %r15, -16
	movq	%rsi, %rbx
	movq	%rdi, %r14
	movl	$0, 60(%rsp)
	leaq	40(%rsp), %rdi
	callq	_newAFsp
	leaq	24(%rsp), %rdi
	callq	_newTsp
	leaq	8(%rsp), %rdi
	callq	_newAFsp
	movq	%rbx, %rdi
	callq	_activationFrameSize
	testl	%eax, %eax
	jne	LBB1_1
LBB1_4:                                 ## %(TRY-0).continue3
	leaq	40(%rsp), %r15
	movq	%r15, %rdi
	movq	%rbx, %rsi
	callq	_copyAFsp
	movq	_globalRunTimeValuesVector@GOTPCREL(%rip), %r12
	movq	%r12, %rdi
	movl	$4, %esi
	callq	_loadTimeValueReference
	movq	%r15, %rdi
	movq	%rax, %rsi
	callq	_attachDebuggingInfoToValueFrame
	movq	%r15, %rdi
	callq	_trace_setActivationFrameForIHSTop
	movl	$1, %edi
	movl	$13, %esi
Ltmp59:
Ltmp60:
	callq	_trace_setLineNumberColumnForIHSTop
	leaq	8(%rsp), %rbx
	movq	%rbx, %rdi
	movl	$1, %esi
	movl	$2000001, %edx          ## imm = 0x1E8481
	callq	_makeValueFrame
	movq	%rbx, %rdi
	movq	%r15, %rsi
	callq	_setParentOfActivationFrame
	movq	%rbx, %rdi
	xorl	%esi, %esi
	callq	_valueFrameReference
	movq	%rax, %rdi
	movq	%r12, %rsi
	movl	$5, %edx
	callq	_sp_copyLoadTimeValue
	callq	_singleStepCallback
	movq	%r12, %rdi
	xorl	%esi, %esi
	callq	_loadTimeSymbolReference
Ltmp36:
	movq	%r14, %rdi
	movq	%rax, %rsi
	movq	%rbx, %rdx
	callq	_mv_invokePossibleMultipleValueSymbolFunction
Ltmp37:
LBB1_8:                                 ## %(TRY-0).try-cont
	leaq	8(%rsp), %rdi
	callq	_destructAFsp
	leaq	24(%rsp), %rdi
	callq	_destructTsp
	leaq	40(%rsp), %rdi
	callq	_destructAFsp
	addq	$72, %rsp
	popq	%rbx
	popq	%r12
	popq	%r14
	popq	%r15
	ret
LBB1_1:                                 ## %(TRY-0).error
	testl	%eax, %eax
	jns	LBB1_3
## BB#2:                                ## %(TRY-0).error1
Ltmp33:
	leaq	"_:::global-str-A"(%rip), %rcx
	movq	%rcx, %rdi
	movq	%rbx, %rsi
	movl	%eax, %edx
	xorl	%ecx, %ecx
	callq	_throwNotEnoughArgumentsException
Ltmp34:
LBB1_3:                                 ## %(TRY-0).continue
Ltmp31:
	leaq	"_:::global-str-A"(%rip), %rcx
	movq	%rcx, %rdi
	movq	%rbx, %rsi
	movl	%eax, %edx
	xorl	%ecx, %ecx
	callq	_throwTooManyArgumentsException
Ltmp32:
	jmp	LBB1_4
LBB1_10:                                ## %(TRY-0).func-cleanup-landing-pad
Ltmp35:
	jmp	LBB1_11
LBB1_5:                                 ## %(TRY-0).landing-pad
Ltmp38:
	movq	%rdx, %rcx
	movq	%rax, %rbx
	movq	%rbx, 64(%rsp)
	movl	%ecx, 60(%rsp)
	cmpl	$1, %ecx
	jne	LBB1_12
## BB#6:                                ## %(TRY-0).handler-block6118
	movq	%rbx, %rdi
	callq	___cxa_begin_catch
Ltmp39:
	movq	%r14, %rdi
	movq	%rax, %rsi
	callq	_mv_blockHandleReturnFrom
Ltmp40:
## BB#7:                                ## %(TRY-0).normal-dest6
Ltmp41:
	callq	___cxa_end_catch
Ltmp42:
	jmp	LBB1_8
LBB1_9:                                 ## %(TRY-0).landing-pad9
Ltmp43:
LBB1_11:                                ## %(TRY-0).func-ehcleanup
	movq	%rdx, %rcx
	movq	%rax, %rbx
	movq	%rbx, 64(%rsp)
	movl	%ecx, 60(%rsp)
LBB1_12:                                ## %(TRY-0).func-ehcleanup
	leaq	8(%rsp), %rax
	movq	%rax, %rdi
	callq	_destructAFsp
	leaq	24(%rsp), %rax
	movq	%rax, %rdi
	callq	_destructTsp
	leaq	40(%rsp), %rax
	movq	%rax, %rdi
	callq	_destructAFsp
	movl	$90, %edi
	callq	_debugPrintI32
	movl	$91, %edi
	callq	_debugPrintI32
	movq	%rbx, %rdi
	callq	__Unwind_Resume
Ltmp61:
Lfunc_end1:
	.cfi_endproc
Leh_func_end1:
	.section	__TEXT,__gcc_except_tab
	.align	2
GCC_except_table1:
Lexception1:
	.byte	255                     ## @LPStart Encoding = omit
	.byte	155                     ## @TType Encoding = indirect pcrel sdata4
	.asciz	"\276\200\200"          ## @TType base offset
	.byte	3                       ## Call site Encoding = udata4
	.byte	52                      ## Call site table length
Lset8 = Ltmp36-Leh_func_begin1          ## >> Call Site 1 <<
	.long	Lset8
Lset9 = Ltmp37-Ltmp36                   ##   Call between Ltmp36 and Ltmp37
	.long	Lset9
Lset10 = Ltmp38-Leh_func_begin1         ##     jumps to Ltmp38
	.long	Lset10
	.byte	3                       ##   On action: 2
Lset11 = Ltmp33-Leh_func_begin1         ## >> Call Site 2 <<
	.long	Lset11
Lset12 = Ltmp32-Ltmp33                  ##   Call between Ltmp33 and Ltmp32
	.long	Lset12
Lset13 = Ltmp35-Leh_func_begin1         ##     jumps to Ltmp35
	.long	Lset13
	.byte	0                       ##   On action: cleanup
Lset14 = Ltmp39-Leh_func_begin1         ## >> Call Site 3 <<
	.long	Lset14
Lset15 = Ltmp42-Ltmp39                  ##   Call between Ltmp39 and Ltmp42
	.long	Lset15
Lset16 = Ltmp43-Leh_func_begin1         ##     jumps to Ltmp43
	.long	Lset16
	.byte	0                       ##   On action: cleanup
Lset17 = Ltmp42-Leh_func_begin1         ## >> Call Site 4 <<
	.long	Lset17
Lset18 = Leh_func_end1-Ltmp42           ##   Call between Ltmp42 and Leh_func_end1
	.long	Lset18
	.long	0                       ##     has no landing pad
	.byte	0                       ##   On action: cleanup
	.byte	0                       ## >> Action Record 1 <<
                                        ##   Cleanup
	.byte	0                       ##   No further actions
	.byte	1                       ## >> Action Record 2 <<
                                        ##   Catch TypeInfo 1
	.byte	125                     ##   Continue to action 1
                                        ## >> Catch TypeInfos <<
	.long	__ZTIN4core10ReturnFromE@GOTPCREL+4 ## TypeInfo 1
	.align	2

	.section	__TEXT,__cstring,cstring_literals
"_:::global-str-compile-in-env":        ## @":::global-str-compile-in-env"
	.asciz	"compile-in-env"

"_:::global-str-lambda":                ## @":::global-str-lambda"
	.asciz	"lambda"

"_:::global-str-A":                     ## @":::global-str-A"
	.asciz	"A"

	.section	__TEXT,__eh_frame,coalesced,no_toc+strip_static_syms+live_support
	.section	__TEXT,__text,regular,pure_instructions
Ldebug_end0:
	.section	__TEXT,__text,regular,pure_instructions
Ltmp66: