	.section	__TEXT,__text,regular,pure_instructions
	.section	__TEXT,__text,regular,pure_instructions
Ltext_begin:
	.section	__DATA,__data
	.file	1 "testDwarf.cc"
	.section	__TEXT,__text,regular,pure_instructions
	.globl	__Z1ai
	.align	4, 0x90
__Z1ai:                                 ## @_Z1ai
	.cfi_startproc
Lfunc_begin0:
	.loc	1 4 0                   ## testDwarf.cc:4:0
## BB#0:                                ## %entry
	pushq	%rbp
Ltmp2:
	.cfi_def_cfa_offset 16
Ltmp3:
	.cfi_offset %rbp, -16
	movq	%rsp, %rbp
Ltmp4:
	.cfi_def_cfa_register %rbp
	subq	$16, %rsp
	movl	%edi, %eax
	movl	%eax, -4(%rbp)
	.loc	1 5 0 prologue_end      ## testDwarf.cc:5:0
Ltmp5:
	leaq	L_.str(%rip), %rdi
	movl	%eax, %esi
	xorl	%eax, %eax
	callq	_printf
	.loc	1 6 0                   ## testDwarf.cc:6:0
	movl	-4(%rbp), %eax
	addq	$16, %rsp
	popq	%rbp
	ret
Ltmp6:
Lfunc_end0:
	.cfi_endproc

	.globl	_main
	.align	4, 0x90
_main:                                  ## @main
	.cfi_startproc
Lfunc_begin1:
	.loc	1 11 0                  ## testDwarf.cc:11:0
## BB#0:                                ## %entry
	pushq	%rbp
Ltmp9:
	.cfi_def_cfa_offset 16
Ltmp10:
	.cfi_offset %rbp, -16
	movq	%rsp, %rbp
Ltmp11:
	.cfi_def_cfa_register %rbp
	subq	$32, %rsp
	movl	%edi, -4(%rbp)
	movq	%rsi, -16(%rbp)
	.loc	1 12 0 prologue_end     ## testDwarf.cc:12:0
Ltmp12:
	movl	$1, -20(%rbp)
	.loc	1 14 0                  ## testDwarf.cc:14:0
Ltmp13:
	movl	$2, -24(%rbp)
	.loc	1 16 0                  ## testDwarf.cc:16:0
Ltmp14:
	movl	-20(%rbp), %esi
	leaq	L_.str1(%rip), %rdi
	movl	$2, %edx
	xorl	%eax, %eax
	callq	_printf
	movl	$1, %edi
Ltmp15:
	.loc	1 18 0                  ## testDwarf.cc:18:0
	callq	__Z1ai
	xorl	%eax, %eax
Ltmp16:
	.loc	1 20 0                  ## testDwarf.cc:20:0
	addq	$32, %rsp
	popq	%rbp
	ret
Ltmp17:
Lfunc_end1:
	.cfi_endproc

	.section	__TEXT,__cstring,cstring_literals
L_.str:                                 ## @.str
	.asciz	"x = %d\n"

L_.str1:                                ## @.str1
	.asciz	"This is a test %d %d\n"

	.section	__TEXT,__text,regular,pure_instructions
Ldebug_end0: