	.section	__TEXT,__text,regular,pure_instructions
	.align	4, 0x90
_lambda:                                ## @lambda
	.cfi_startproc
	.cfi_personality 155, ___gxx_personality_v0
Leh_func_begin0:
	.cfi_lsda 16, Lexception0
## BB#0:                                ## %body
	pushq	%rbp
Ltmp39:
	.cfi_def_cfa_offset 16
	pushq	%r15
Ltmp40:
	.cfi_def_cfa_offset 24
	pushq	%r14
Ltmp41:
	.cfi_def_cfa_offset 32
	pushq	%r13
Ltmp42:
	.cfi_def_cfa_offset 40
	pushq	%r12
Ltmp43:
	.cfi_def_cfa_offset 48
	pushq	%rbx
Ltmp44:
	.cfi_def_cfa_offset 56
	subq	$360, %rsp              ## imm = 0x168
Ltmp45:
	.cfi_def_cfa_offset 416
Ltmp46:
	.cfi_offset %rbx, -56
Ltmp47:
	.cfi_offset %r12, -48
Ltmp48:
	.cfi_offset %r13, -40
Ltmp49:
	.cfi_offset %r14, -32
Ltmp50:
	.cfi_offset %r15, -24
Ltmp51:
	.cfi_offset %rbp, -16
	movq	%rsi, %rbp
	movq	%rdi, 48(%rsp)          ## 8-byte Spill
	movl	$0, 348(%rsp)
	leaq	328(%rsp), %rdi
	callq	_newAFsp
	leaq	312(%rsp), %rdi
	callq	_newTsp
	leaq	296(%rsp), %rdi
	callq	_newTsp
	leaq	280(%rsp), %rdi
	callq	_newAFsp
	leaq	264(%rsp), %rdi
	callq	_newTsp
	leaq	248(%rsp), %rdi
	callq	_newAFsp
	leaq	232(%rsp), %rdi
	callq	_newTsp
	leaq	216(%rsp), %rdi
	callq	_newTsp
	leaq	200(%rsp), %rdi
	callq	_newTsp
	leaq	184(%rsp), %rdi
	callq	_newAFsp
	leaq	168(%rsp), %rdi
	callq	_newAFsp
	leaq	152(%rsp), %rdi
	callq	_newAFsp
	leaq	136(%rsp), %rdi
	callq	_newAFsp
	leaq	120(%rsp), %rdi
	callq	_newTsp
	leaq	104(%rsp), %rdi
	callq	_newAFsp
	leaq	88(%rsp), %rdi
	callq	_newTsp
	leaq	72(%rsp), %rdi
	callq	_newTsp
	leaq	56(%rsp), %rdi
	callq	_newTsp
	movq	%rbp, %rdi
	callq	_activationFrameSize
	testl	%eax, %eax
	jne	LBB0_1
LBB0_4:                                 ## %(TRY-0).LET*-start
	leaq	328(%rsp), %rbx
	movq	%rbx, %rdi
	movq	%rbp, %rsi
	callq	_copyAFsp
	movq	_globalRunTimeValuesVector@GOTPCREL(%rip), %r14
	movq	%r14, %rdi
	movl	$7, %esi
	callq	_loadTimeValueReference
	movq	%rbx, %rdi
	movq	%rax, %rsi
	callq	_attachDebuggingInfoToValueFrame
	movq	%rbx, %rdi
	callq	_trace_setActivationFrameForIHSTop
	leaq	280(%rsp), %rbp
	movq	%rbp, %rdi
	callq	_trace_setActivationFrameForIHSTop
	movq	%rbp, %rdi
	movl	$2, %esi
	movl	$2000002, %edx          ## imm = 0x1E8482
	callq	_makeValueFrame
	movq	%rbp, %rdi
	movq	%rbx, %rsi
	callq	_setParentOfActivationFrame
	movq	%r14, %rdi
	movl	$8, %esi
	callq	_loadTimeValueReference
	movq	%rbp, %rdi
	movq	%rax, %rsi
	callq	_attachDebuggingInfoToValueFrame
	xorl	%edi, %edi
	xorl	%esi, %esi
	movq	%rbp, %rdx
	callq	_lexicalValueReference
	movq	%rax, %rbx
	movq	%r14, %rdi
	movl	$2, %esi
	callq	_loadTimeSymbolReference
	movq	%rbx, %rdi
	movq	%rax, %rsi
	callq	_sp_symbolValueRead
	xorl	%edi, %edi
	movl	$1, %esi
	movq	%rbp, %rdx
	callq	_lexicalValueReference
	movq	%rax, %rdi
	movq	%r14, %rsi
	movq	%r14, %r12
	xorl	%edx, %edx
	callq	_sp_copyLoadTimeValue
	movq	%rbp, %rdi
	callq	_trace_setActivationFrameForIHSTop
	callq	_singleStepCallback
	leaq	248(%rsp), %r13
	movq	%r13, %rdi
	callq	_makeTagbodyFrame
	movq	%r13, %rdi
	movq	%rbp, %rsi
	callq	_setParentOfActivationFrame
	leaq	152(%rsp), %rbx
	leaq	136(%rsp), %r15
	jmp	LBB0_5
	.align	4, 0x90
LBB0_16:                                ## %(TRY-0).handler-block6306
                                        ##   in Loop: Header=BB0_5 Depth=1
	movq	352(%rsp), %rdi
	callq	___cxa_begin_catch
Ltmp3:
	movq	%r13, %rdi
	movq	%rax, %rsi
	callq	_tagbodyDynamicGoIndexElseRethrow
Ltmp4:
## BB#17:                               ## %(TRY-0).normal-dest27
                                        ##   in Loop: Header=BB0_5 Depth=1
	cmpl	$1, %eax
	je	LBB0_6
## BB#18:                               ## %(TRY-0).normal-dest27
                                        ##   in Loop: Header=BB0_5 Depth=1
	cmpl	$2, %eax
	jne	LBB0_19
LBB0_12:                                ## %(TRY-0).tagbody-#:G6263-2
                                        ##   in Loop: Header=BB0_5 Depth=1
	leaq	72(%rsp), %rbp
	movq	%rbp, %rdi
	movl	$1, %esi
	xorl	%edx, %edx
	movq	%r13, %rcx
	callq	_sp_lexicalValueRead
	movq	%rbp, %rdi
	callq	_isTrueTsp
	cmpl	$1, %eax
	jne	LBB0_21
## BB#13:                               ## %(TRY-0).then
                                        ##   in Loop: Header=BB0_5 Depth=1
Ltmp16:
	xorl	%edi, %edi
	movl	$1, %esi
	movq	%r13, %rdx
	callq	_throw_DynamicGo
Ltmp17:
LBB0_19:                                ## %(TRY-0).normal-dest27
                                        ##   in Loop: Header=BB0_5 Depth=1
	testl	%eax, %eax
	je	LBB0_5
	jmp	LBB0_20
LBB0_6:                                 ## %(TRY-0).tagbody-#:G6262-1
                                        ##   in Loop: Header=BB0_5 Depth=1
	movl	$1, %edi
	movl	$1, %esi
	movq	%r13, %rdx
	callq	_lexicalValueReference
	movq	%rax, %r14
	leaq	184(%rsp), %rbp
	movq	%rbp, %rdi
	movl	$1, %esi
	movl	$2000003, %edx          ## imm = 0x1E8483
	callq	_makeValueFrame
	movq	%rbp, %rdi
	movq	%r13, %rsi
	callq	_setParentOfActivationFrame
	movq	%rbp, %rdi
	xorl	%esi, %esi
	callq	_valueFrameReference
	movq	%rax, %rdi
	movl	$1, %esi
	xorl	%edx, %edx
	movq	%r13, %rcx
	callq	_sp_lexicalValueRead
	callq	_singleStepCallback
	movq	%r12, %rdi
	movl	$3, %esi
	callq	_loadTimeSymbolReference
Ltmp6:
	leaq	200(%rsp), %rdi
	movq	%rax, %rsi
	movq	%rbp, %rdx
	callq	_sp_invokePossibleMultipleValueSymbolFunction
Ltmp7:
## BB#7:                                ## %(TRY-0).normal-dest12
                                        ##   in Loop: Header=BB0_5 Depth=1
	movq	%r14, %rdi
	leaq	200(%rsp), %rbp
	movq	%rbp, %rsi
	callq	_sp_copyTsp
	leaq	216(%rsp), %rdi
	movq	%rbp, %rsi
	callq	_sp_copyTsp
	movl	$8, %edi
	movl	$3, %esi
	callq	_trace_setLineNumberColumnForIHSTop
	leaq	168(%rsp), %rbp
	movq	%rbp, %rdi
	movl	$3, %esi
	movl	$2000004, %edx          ## imm = 0x1E8484
	callq	_makeValueFrame
	movq	%rbp, %rdi
	movq	%r13, %rsi
	callq	_setParentOfActivationFrame
	movq	%rbp, %rdi
	xorl	%esi, %esi
	callq	_valueFrameReference
	movq	%rax, %rbp
	movl	$8, %edi
	movl	$16, %esi
	callq	_trace_setLineNumberColumnForIHSTop
	movq	%rbx, %rdi
	movl	$1, %esi
	movl	$2000005, %edx          ## imm = 0x1E8485
	callq	_makeValueFrame
	movq	%rbx, %rdi
	movq	%r13, %rsi
	callq	_setParentOfActivationFrame
	movq	%rbx, %rdi
	xorl	%esi, %esi
	callq	_valueFrameReference
	movq	%rax, %rdi
	movl	$1, %esi
	movl	$1, %edx
	movq	%r13, %rcx
	callq	_sp_lexicalValueRead
	callq	_singleStepCallback
	movq	%r12, %rdi
	movl	$4, %esi
	callq	_loadTimeSymbolReference
Ltmp8:
	movq	%rbp, %rdi
	movq	%rax, %rsi
	movq	%rbx, %rdx
	callq	_sp_invokePossibleMultipleValueSymbolFunction
Ltmp9:
## BB#8:                                ## %(TRY-0).normal-dest15
                                        ##   in Loop: Header=BB0_5 Depth=1
	leaq	168(%rsp), %rbp
	movq	%rbp, %rdi
	movl	$1, %esi
	callq	_valueFrameReference
	movq	%rax, %rdi
	movq	%r12, %r14
	movq	%r14, %rsi
	movl	$9, %edx
	callq	_sp_copyLoadTimeValue
	movq	%rbp, %rdi
	movl	$2, %esi
	callq	_valueFrameReference
	movq	%rax, %rbp
	movl	$8, %edi
	movl	$40, %esi
	callq	_trace_setLineNumberColumnForIHSTop
	movq	%r15, %rdi
	movl	$1, %esi
	movl	$2000006, %edx          ## imm = 0x1E8486
	callq	_makeValueFrame
	movq	%r15, %rdi
	movq	%r13, %rsi
	callq	_setParentOfActivationFrame
	movq	%r15, %rdi
	xorl	%esi, %esi
	callq	_valueFrameReference
	movq	%rax, %rdi
	movl	$1, %esi
	movl	$1, %edx
	movq	%r13, %rcx
	callq	_sp_lexicalValueRead
	callq	_singleStepCallback
	movq	%r14, %rdi
	movq	%r14, %r12
	movl	$5, %esi
	callq	_loadTimeSymbolReference
Ltmp10:
	movq	%rbp, %rdi
	movq	%rax, %rsi
	movq	%r15, %rdx
	callq	_sp_invokePossibleMultipleValueSymbolFunction
Ltmp11:
## BB#9:                                ## %(TRY-0).normal-dest17
                                        ##   in Loop: Header=BB0_5 Depth=1
	callq	_singleStepCallback
	movq	%r12, %rdi
	movl	$6, %esi
	callq	_loadTimeSymbolReference
Ltmp12:
	leaq	216(%rsp), %rdi
	movq	%rax, %rsi
	leaq	168(%rsp), %rdx
	callq	_sp_invokePossibleMultipleValueSymbolFunction
Ltmp13:
## BB#10:                               ## %(TRY-0).normal-dest18
                                        ##   in Loop: Header=BB0_5 Depth=1
	movl	$1, %edi
	xorl	%esi, %esi
	movq	%r13, %rdx
	callq	_lexicalValueReference
	movq	%rax, %r14
	leaq	104(%rsp), %rbp
	movq	%rbp, %rdi
	movl	$1, %esi
	movl	$2000007, %edx          ## imm = 0x1E8487
	callq	_makeValueFrame
	movq	%rbp, %rdi
	movq	%r13, %rsi
	callq	_setParentOfActivationFrame
	movq	%rbp, %rdi
	xorl	%esi, %esi
	callq	_valueFrameReference
	movq	%rax, %rdi
	movl	$1, %esi
	xorl	%edx, %edx
	movq	%r13, %rcx
	callq	_sp_lexicalValueRead
	callq	_singleStepCallback
	movq	%r12, %rdi
	movl	$5, %esi
	callq	_loadTimeSymbolReference
Ltmp14:
	leaq	120(%rsp), %rdi
	movq	%rax, %rsi
	movq	%rbp, %rdx
	callq	_sp_invokePossibleMultipleValueSymbolFunction
Ltmp15:
## BB#11:                               ## %(TRY-0).normal-dest22
                                        ##   in Loop: Header=BB0_5 Depth=1
	movq	%r14, %rdi
	leaq	120(%rsp), %rbp
	movq	%rbp, %rsi
	callq	_sp_copyTsp
	leaq	264(%rsp), %rdi
	movq	%rbp, %rsi
	callq	_sp_copyTsp
	jmp	LBB0_12
LBB0_14:                                ## %(TRY-0).landing-pad.split-lp
                                        ##   in Loop: Header=BB0_5 Depth=1
Ltmp18:
	jmp	LBB0_15
	.align	4, 0x90
LBB0_5:                                 ## %(TRY-0).tagbody-#:G6269-0
                                        ## =>This Inner Loop Header: Depth=1
Ltmp0:
	xorl	%edi, %edi
	movl	$2, %esi
	movq	%r13, %rdx
	callq	_throw_DynamicGo
Ltmp1:
	jmp	LBB0_6
LBB0_33:                                ## %(TRY-0).landing-pad.preheader
                                        ##   in Loop: Header=BB0_5 Depth=1
Ltmp2:
LBB0_15:                                ## %(TRY-0).dispatch-TYPEID-CORE-DYNAMIC-GO-6302
                                        ##   in Loop: Header=BB0_5 Depth=1
	movq	%rax, 352(%rsp)
	movl	%edx, 348(%rsp)
	leaq	264(%rsp), %rdi
	movq	%r12, %rsi
	xorl	%edx, %edx
	callq	_sp_copyLoadTimeValue
	cmpl	$2, 348(%rsp)
	je	LBB0_16
	jmp	LBB0_26
LBB0_23:                                ## %(TRY-0).landing-pad32.loopexit
Ltmp5:
	jmp	LBB0_25
LBB0_20:                                ## %(TRY-0).switch-default
Ltmp19:
	movl	%eax, %edi
	movl	$3, %esi
	callq	_throwIllegalSwitchValue
Ltmp20:
	jmp	LBB0_21
LBB0_24:                                ## %(TRY-0).landing-pad32.nonloopexit
Ltmp21:
LBB0_25:                                ## %(TRY-0).landing-pad32
	movq	%rax, 352(%rsp)
	movl	%edx, 348(%rsp)
LBB0_26:                                ## %(TRY-0).dispatch-TYPEID-CORE-RETURN-FROM-6155
	cmpl	$1, 348(%rsp)
	jne	LBB0_32
## BB#27:                               ## %(TRY-0).handler-block6159
	movq	352(%rsp), %rdi
	callq	___cxa_begin_catch
Ltmp22:
	movq	48(%rsp), %rdi          ## 8-byte Reload
	movq	%rax, %rsi
	callq	_mv_blockHandleReturnFrom
Ltmp23:
## BB#28:                               ## %(TRY-0).normal-dest40
Ltmp24:
	callq	___cxa_end_catch
Ltmp25:
LBB0_22:                                ## %return-block
	leaq	56(%rsp), %rdi
	callq	_destructTsp
	leaq	72(%rsp), %rdi
	callq	_destructTsp
	leaq	88(%rsp), %rdi
	callq	_destructTsp
	leaq	104(%rsp), %rdi
	callq	_destructAFsp
	leaq	120(%rsp), %rdi
	callq	_destructTsp
	leaq	136(%rsp), %rdi
	callq	_destructAFsp
	leaq	152(%rsp), %rdi
	callq	_destructAFsp
	leaq	168(%rsp), %rdi
	callq	_destructAFsp
	leaq	184(%rsp), %rdi
	callq	_destructAFsp
	leaq	200(%rsp), %rdi
	callq	_destructTsp
	leaq	216(%rsp), %rdi
	callq	_destructTsp
	leaq	232(%rsp), %rdi
	callq	_destructTsp
	leaq	248(%rsp), %rdi
	callq	_destructAFsp
	leaq	264(%rsp), %rdi
	callq	_destructTsp
	leaq	280(%rsp), %rdi
	callq	_destructAFsp
	leaq	296(%rsp), %rdi
	callq	_destructTsp
	leaq	312(%rsp), %rdi
	callq	_destructTsp
	leaq	328(%rsp), %rdi
	callq	_destructAFsp
	addq	$360, %rsp              ## imm = 0x168
	popq	%rbx
	popq	%r12
	popq	%r13
	popq	%r14
	popq	%r15
	popq	%rbp
	ret
LBB0_1:                                 ## %error
	testl	%eax, %eax
	jns	LBB0_3
## BB#2:                                ## %error1
Ltmp29:
	leaq	"_:::global-str-lambda"(%rip), %rcx
	movq	%rcx, %rdi
	movq	%rbp, %rsi
	movl	%eax, %edx
	xorl	%ecx, %ecx
	callq	_throwNotEnoughArgumentsException
Ltmp30:
LBB0_3:                                 ## %continue
Ltmp27:
	leaq	"_:::global-str-lambda"(%rip), %rcx
	movq	%rcx, %rdi
	movq	%rbp, %rsi
	movl	%eax, %edx
	xorl	%ecx, %ecx
	callq	_throwTooManyArgumentsException
Ltmp28:
	jmp	LBB0_4
LBB0_30:                                ## %func-cleanup-landing-pad
Ltmp31:
	jmp	LBB0_31
LBB0_21:                                ## %(TRY-0).try-cont
	leaq	264(%rsp), %rbx
	movq	_globalRunTimeValuesVector@GOTPCREL(%rip), %rbp
	movq	%rbx, %rdi
	movq	%rbp, %rsi
	xorl	%edx, %edx
	callq	_sp_copyLoadTimeValue
	movq	%rbx, %rdi
	movq	%rbp, %rsi
	xorl	%edx, %edx
	callq	_sp_copyLoadTimeValue
	movq	48(%rsp), %rdi          ## 8-byte Reload
	movq	%rbp, %rsi
	xorl	%edx, %edx
	callq	_mv_copyLoadTimeValue
	jmp	LBB0_22
LBB0_29:                                ## %(TRY-0).landing-pad44
Ltmp26:
LBB0_31:                                ## %func-ehresume
	movq	%rdx, %rcx
	movq	%rax, 352(%rsp)
	movl	%ecx, 348(%rsp)
LBB0_32:                                ## %func-ehresume
	leaq	56(%rsp), %rax
	movq	%rax, %rdi
	callq	_destructTsp
	leaq	72(%rsp), %rax
	movq	%rax, %rdi
	callq	_destructTsp
	leaq	88(%rsp), %rax
	movq	%rax, %rdi
	callq	_destructTsp
	leaq	104(%rsp), %rax
	movq	%rax, %rdi
	callq	_destructAFsp
	leaq	120(%rsp), %rax
	movq	%rax, %rdi
	callq	_destructTsp
	leaq	136(%rsp), %rax
	movq	%rax, %rdi
	callq	_destructAFsp
	leaq	152(%rsp), %rax
	movq	%rax, %rdi
	callq	_destructAFsp
	leaq	168(%rsp), %rax
	movq	%rax, %rdi
	callq	_destructAFsp
	leaq	184(%rsp), %rax
	movq	%rax, %rdi
	callq	_destructAFsp
	leaq	200(%rsp), %rax
	movq	%rax, %rdi
	callq	_destructTsp
	leaq	216(%rsp), %rax
	movq	%rax, %rdi
	callq	_destructTsp
	leaq	232(%rsp), %rax
	movq	%rax, %rdi
	callq	_destructTsp
	leaq	248(%rsp), %rax
	movq	%rax, %rdi
	callq	_destructAFsp
	leaq	264(%rsp), %rax
	movq	%rax, %rdi
	callq	_destructTsp
	leaq	280(%rsp), %rax
	movq	%rax, %rdi
	callq	_destructAFsp
	leaq	296(%rsp), %rax
	movq	%rax, %rdi
	callq	_destructTsp
	leaq	312(%rsp), %rax
	movq	%rax, %rdi
	callq	_destructTsp
	leaq	328(%rsp), %rax
	movq	%rax, %rdi
	callq	_destructAFsp
	movq	352(%rsp), %rbx
	movl	$90, %edi
	callq	_debugPrintI32
	movl	$91, %edi
	callq	_debugPrintI32
	movq	%rbx, %rdi
	callq	__Unwind_Resume
	.cfi_endproc
Leh_func_end0:
	.section	__TEXT,__gcc_except_tab
	.align	2
GCC_except_table0:
Lexception0:
	.byte	255                     ## @LPStart Encoding = omit
	.byte	155                     ## @TType Encoding = indirect pcrel sdata4
	.asciz	"\353\200"              ## @TType base offset
	.byte	3                       ## Call site Encoding = udata4
	.byte	91                      ## Call site table length
Lset0 = Ltmp3-Leh_func_begin0           ## >> Call Site 1 <<
	.long	Lset0
Lset1 = Ltmp4-Ltmp3                     ##   Call between Ltmp3 and Ltmp4
	.long	Lset1
Lset2 = Ltmp5-Leh_func_begin0           ##     jumps to Ltmp5
	.long	Lset2
	.byte	3                       ##   On action: 2
Lset3 = Ltmp16-Leh_func_begin0          ## >> Call Site 2 <<
	.long	Lset3
Lset4 = Ltmp15-Ltmp16                   ##   Call between Ltmp16 and Ltmp15
	.long	Lset4
Lset5 = Ltmp18-Leh_func_begin0          ##     jumps to Ltmp18
	.long	Lset5
	.byte	5                       ##   On action: 3
Lset6 = Ltmp0-Leh_func_begin0           ## >> Call Site 3 <<
	.long	Lset6
Lset7 = Ltmp1-Ltmp0                     ##   Call between Ltmp0 and Ltmp1
	.long	Lset7
Lset8 = Ltmp2-Leh_func_begin0           ##     jumps to Ltmp2
	.long	Lset8
	.byte	5                       ##   On action: 3
Lset9 = Ltmp19-Leh_func_begin0          ## >> Call Site 4 <<
	.long	Lset9
Lset10 = Ltmp20-Ltmp19                  ##   Call between Ltmp19 and Ltmp20
	.long	Lset10
Lset11 = Ltmp21-Leh_func_begin0         ##     jumps to Ltmp21
	.long	Lset11
	.byte	3                       ##   On action: 2
Lset12 = Ltmp22-Leh_func_begin0         ## >> Call Site 5 <<
	.long	Lset12
Lset13 = Ltmp25-Ltmp22                  ##   Call between Ltmp22 and Ltmp25
	.long	Lset13
Lset14 = Ltmp26-Leh_func_begin0         ##     jumps to Ltmp26
	.long	Lset14
	.byte	0                       ##   On action: cleanup
Lset15 = Ltmp29-Leh_func_begin0         ## >> Call Site 6 <<
	.long	Lset15
Lset16 = Ltmp28-Ltmp29                  ##   Call between Ltmp29 and Ltmp28
	.long	Lset16
Lset17 = Ltmp31-Leh_func_begin0         ##     jumps to Ltmp31
	.long	Lset17
	.byte	0                       ##   On action: cleanup
Lset18 = Ltmp28-Leh_func_begin0         ## >> Call Site 7 <<
	.long	Lset18
Lset19 = Leh_func_end0-Ltmp28           ##   Call between Ltmp28 and Leh_func_end0
	.long	Lset19
	.long	0                       ##     has no landing pad
	.byte	0                       ##   On action: cleanup
	.byte	0                       ## >> Action Record 1 <<
                                        ##   Cleanup
	.byte	0                       ##   No further actions
	.byte	1                       ## >> Action Record 2 <<
                                        ##   Catch TypeInfo 1
	.byte	125                     ##   Continue to action 1
	.byte	2                       ## >> Action Record 3 <<
                                        ##   Catch TypeInfo 2
	.byte	125                     ##   Continue to action 2
                                        ## >> Catch TypeInfos <<
	.long	__ZTIN4core9DynamicGoE@GOTPCREL+4 ## TypeInfo 2
	.long	__ZTIN4core10ReturnFromE@GOTPCREL+4 ## TypeInfo 1
	.align	2

	.section	__TEXT,__cstring,cstring_literals
	.align	4                       ## @":::global-str-/Users/meister/Development/cando/brcl/src/tests/exceptionHandling/testcase.lsp"
"_:::global-str-/Users/meister/Development/cando/brcl/src/tests/exceptionHandling/testcase.lsp":
	.asciz	"/Users/meister/Development/cando/brcl/src/tests/exceptionHandling/testcase.lsp"

"_:::global-str-lambda":                ## @":::global-str-lambda"
	.asciz	"lambda"

	.section	__TEXT,__eh_frame,coalesced,no_toc+strip_static_syms+live_support

.subsections_via_symbols
